
========================================================================

** ELF Header Information

    File Name: .\Objects\Universal_Remote_Control_of_NEC_Protocal.axf

    Machine class: ELFCLASS32 (32-bit)
    Data encoding: ELFDATA2LSB (Little endian)
    Header version: EV_CURRENT (Current version)
    Operating System ABI: none
    ABI Version: 0
    File Type: ET_EXEC (Executable) (2)
    Machine: EM_ARM (ARM)

    Image Entry point: 0x000000d5
    Flags: EF_ARM_HASENTRY + EF_ARM_ABI_FLOAT_SOFT (0x05000202)

    ARM ELF revision: 5 (ABI version 2)

    Conforms to Soft float procedure-call standard

    Built with
    Component: ARM Compiler 5.06 update 5 (build 528) Tool: armasm [4d35e1]
    Component: ARM Compiler 5.06 update 5 (build 528) Tool: armlink [4d35e2]

    Header size: 52 bytes (0x34)
    Program header entry size: 32 bytes (0x20)
    Section header entry size: 40 bytes (0x28)

    Program header entries: 1
    Section header entries: 16

    Program header offset: 360036 (0x00057e64)
    Section header offset: 360068 (0x00057e84)

    Section header string table index: 15

========================================================================

** Program header #0 (PT_LOAD) [PF_X + PF_W + PF_R + PF_ARM_ENTRY]
    Size : 14572 bytes (11160 bytes in file)
    Virtual address: 0x00000000 (Alignment 8)


========================================================================

** Section #1 'ER_RO' (SHT_PROGBITS) [SHF_ALLOC + SHF_EXECINSTR]
    Size   : 8620 bytes (alignment 4)
    Address: 0x00000000

    $d.realdata
    RESET
    __Vectors
        0x00000000:    20001740    @..     DCD    536876864
        0x00000004:    000000d5    ....    DCD    213
        0x00000008:    000000f5    ....    DCD    245
        0x0000000c:    000000f7    ....    DCD    247
        0x00000010:    00000000    ....    DCD    0
        0x00000014:    00000000    ....    DCD    0
        0x00000018:    00000000    ....    DCD    0
        0x0000001c:    00000000    ....    DCD    0
        0x00000020:    00000000    ....    DCD    0
        0x00000024:    00000000    ....    DCD    0
        0x00000028:    00000000    ....    DCD    0
        0x0000002c:    000000f9    ....    DCD    249
        0x00000030:    00000000    ....    DCD    0
        0x00000034:    00000000    ....    DCD    0
        0x00000038:    000000fb    ....    DCD    251
        0x0000003c:    000000fd    ....    DCD    253
        0x00000040:    000000ff    ....    DCD    255
        0x00000044:    000000ff    ....    DCD    255
        0x00000048:    000000ff    ....    DCD    255
        0x0000004c:    00000665    e...    DCD    1637
        0x00000050:    00000701    ....    DCD    1793
        0x00000054:    000007c9    ....    DCD    1993
        0x00000058:    000000ff    ....    DCD    255
        0x0000005c:    000000ff    ....    DCD    255
        0x00000060:    00001099    ....    DCD    4249
        0x00000064:    000010b1    ....    DCD    4273
        0x00000068:    000011c5    ....    DCD    4549
        0x0000006c:    000000ff    ....    DCD    255
        0x00000070:    000000ff    ....    DCD    255
        0x00000074:    000000ff    ....    DCD    255
        0x00000078:    000000ff    ....    DCD    255
        0x0000007c:    000000ff    ....    DCD    255
        0x00000080:    000000ff    ....    DCD    255
        0x00000084:    000000ff    ....    DCD    255
        0x00000088:    000000ff    ....    DCD    255
        0x0000008c:    000000ff    ....    DCD    255
        0x00000090:    000000ff    ....    DCD    255
        0x00000094:    000000ff    ....    DCD    255
        0x00000098:    000000ff    ....    DCD    255
        0x0000009c:    000000ff    ....    DCD    255
        0x000000a0:    000000ff    ....    DCD    255
        0x000000a4:    000000ff    ....    DCD    255
        0x000000a8:    000000ff    ....    DCD    255
        0x000000ac:    000000ff    ....    DCD    255
        0x000000b0:    000000ff    ....    DCD    255
        0x000000b4:    000000ff    ....    DCD    255
        0x000000b8:    000000ff    ....    DCD    255
        0x000000bc:    000000ff    ....    DCD    255
    $t
    .ARM.Collect$$$$00000000
    .ARM.Collect$$$$00000001
    __main
    _main_stk
        0x000000c0:    4803        .H      LDR      r0,__lit__00000000 ; [0xd0] = 0x20001740
        0x000000c2:    4685        .F      MOV      sp,r0
    .ARM.Collect$$$$00000004
    _main_scatterload
        0x000000c4:    f000f88c    ....    BL       __scatterload ; 0x1e0
    .ARM.Collect$$$$00000008
    .ARM.Collect$$$$0000000A
    .ARM.Collect$$$$0000000B
    __main_after_scatterload
    _main_clock
    _main_cpp_init
    _main_init
        0x000000c8:    4800        .H      LDR      r0,[pc,#0] ; [0xcc] = 0x1a81
        0x000000ca:    4700        .G      BX       r0
    $d
        0x000000cc:    00001a81    ....    DCD    6785
    .ARM.Collect$$$$00002712
    __lit__00000000
    .ARM.Collect$$$$0000000D
    .ARM.Collect$$$$0000000F
    __rt_final_cpp
    __rt_final_exit
        0x000000d0:    20001740    @..     DCD    536876864
    $t
    .text
    Reset_Handler
        0x000000d4:    480a        .H      LDR      r0,[pc,#40] ; [0x100] = 0x50000100
        0x000000d6:    490b        .I      LDR      r1,[pc,#44] ; [0x104] = 0x59
        0x000000d8:    6001        .`      STR      r1,[r0,#0]
        0x000000da:    490b        .I      LDR      r1,[pc,#44] ; [0x108] = 0x16
        0x000000dc:    6001        .`      STR      r1,[r0,#0]
        0x000000de:    490b        .I      LDR      r1,[pc,#44] ; [0x10c] = 0x88
        0x000000e0:    6001        .`      STR      r1,[r0,#0]
        0x000000e2:    4a0b        .J      LDR      r2,[pc,#44] ; [0x110] = 0x50000024
        0x000000e4:    490b        .I      LDR      r1,[pc,#44] ; [0x114] = 0x5aa5
        0x000000e6:    6011        .`      STR      r1,[r2,#0]
        0x000000e8:    2100        .!      MOVS     r1,#0
        0x000000ea:    6001        .`      STR      r1,[r0,#0]
        0x000000ec:    480a        .H      LDR      r0,[pc,#40] ; [0x118] = 0xfcd
        0x000000ee:    4780        .G      BLX      r0
        0x000000f0:    480a        .H      LDR      r0,[pc,#40] ; [0x11c] = 0xc1
        0x000000f2:    4700        .G      BX       r0
    NMI_Handler
        0x000000f4:    e7fe        ..      B        NMI_Handler ; 0xf4
    HardFault_Handler
        0x000000f6:    e7fe        ..      B        HardFault_Handler ; 0xf6
    SVC_Handler
        0x000000f8:    e7fe        ..      B        SVC_Handler ; 0xf8
    PendSV_Handler
        0x000000fa:    e7fe        ..      B        PendSV_Handler ; 0xfa
    SysTick_Handler
        0x000000fc:    e7fe        ..      B        SysTick_Handler ; 0xfc
    Default_Handler
    ACMP_IRQHandler
    ADC_IRQHandler
    BOD_IRQHandler
    CAN0_IRQHandler
    CAN1_IRQHandler
    EINT0_IRQHandler
    I2C0_IRQHandler
    I2C1_IRQHandler
    I2S_IRQHandler
    PDMA_IRQHandler
    PS2_IRQHandler
    PWMA_IRQHandler
    PWMB_IRQHandler
    PWRWU_IRQHandler
    RTC_IRQHandler
    SC012_IRQHandler
    SPI0_IRQHandler
    SPI1_IRQHandler
    SPI2_IRQHandler
    SPI3_IRQHandler
    TMR3_IRQHandler
    UART02_IRQHandler
    UART1_IRQHandler
    USBD_IRQHandler
    WDT_IRQHandler
        0x000000fe:    e7fe        ..      B        Default_Handler ; 0xfe
    $d
        0x00000100:    50000100    ...P    DCD    1342177536
        0x00000104:    00000059    Y...    DCD    89
        0x00000108:    00000016    ....    DCD    22
        0x0000010c:    00000088    ....    DCD    136
        0x00000110:    50000024    $..P    DCD    1342177316
        0x00000114:    00005aa5    .Z..    DCD    23205
        0x00000118:    00000fcd    ....    DCD    4045
        0x0000011c:    000000c1    ....    DCD    193
    $t
    .text
    __aeabi_uidiv
    __aeabi_uidivmod
        0x00000120:    b530        0.      PUSH     {r4,r5,lr}
        0x00000122:    460b        .F      MOV      r3,r1
        0x00000124:    4601        .F      MOV      r1,r0
        0x00000126:    2000        .       MOVS     r0,#0
        0x00000128:    2220         "      MOVS     r2,#0x20
        0x0000012a:    2401        .$      MOVS     r4,#1
        0x0000012c:    e009        ..      B        0x142 ; __aeabi_uidiv + 34
        0x0000012e:    460d        .F      MOV      r5,r1
        0x00000130:    40d5        .@      LSRS     r5,r5,r2
        0x00000132:    429d        .B      CMP      r5,r3
        0x00000134:    d305        ..      BCC      0x142 ; __aeabi_uidiv + 34
        0x00000136:    461d        .F      MOV      r5,r3
        0x00000138:    4095        .@      LSLS     r5,r5,r2
        0x0000013a:    1b49        I.      SUBS     r1,r1,r5
        0x0000013c:    4625        %F      MOV      r5,r4
        0x0000013e:    4095        .@      LSLS     r5,r5,r2
        0x00000140:    1940        @.      ADDS     r0,r0,r5
        0x00000142:    4615        .F      MOV      r5,r2
        0x00000144:    1e52        R.      SUBS     r2,r2,#1
        0x00000146:    2d00        .-      CMP      r5,#0
        0x00000148:    dcf1        ..      BGT      0x12e ; __aeabi_uidiv + 14
        0x0000014a:    bd30        0.      POP      {r4,r5,pc}
    .text
    __aeabi_memcpy
    __aeabi_memcpy4
    __aeabi_memcpy8
        0x0000014c:    4603        .F      MOV      r3,r0
        0x0000014e:    430b        .C      ORRS     r3,r3,r1
        0x00000150:    079b        ..      LSLS     r3,r3,#30
        0x00000152:    d003        ..      BEQ      0x15c ; __aeabi_memcpy + 16
        0x00000154:    e009        ..      B        0x16a ; __aeabi_memcpy + 30
        0x00000156:    c908        ..      LDM      r1!,{r3}
        0x00000158:    1f12        ..      SUBS     r2,r2,#4
        0x0000015a:    c008        ..      STM      r0!,{r3}
        0x0000015c:    2a04        .*      CMP      r2,#4
        0x0000015e:    d2fa        ..      BCS      0x156 ; __aeabi_memcpy + 10
        0x00000160:    e003        ..      B        0x16a ; __aeabi_memcpy + 30
        0x00000162:    780b        .x      LDRB     r3,[r1,#0]
        0x00000164:    7003        .p      STRB     r3,[r0,#0]
        0x00000166:    1c40        @.      ADDS     r0,r0,#1
        0x00000168:    1c49        I.      ADDS     r1,r1,#1
        0x0000016a:    1e52        R.      SUBS     r2,r2,#1
        0x0000016c:    d2f9        ..      BCS      0x162 ; __aeabi_memcpy + 22
        0x0000016e:    4770        pG      BX       lr
    .text
    strlen
        0x00000170:    1c42        B.      ADDS     r2,r0,#1
        0x00000172:    7801        .x      LDRB     r1,[r0,#0]
        0x00000174:    1c40        @.      ADDS     r0,r0,#1
        0x00000176:    2900        .)      CMP      r1,#0
        0x00000178:    d1fb        ..      BNE      0x172 ; strlen + 2
        0x0000017a:    1a80        ..      SUBS     r0,r0,r2
        0x0000017c:    4770        pG      BX       lr
    .text
    __aeabi_uldivmod
        0x0000017e:    b5f0        ..      PUSH     {r4-r7,lr}
        0x00000180:    b41f        ..      PUSH     {r0-r4}
        0x00000182:    4606        .F      MOV      r6,r0
        0x00000184:    2000        .       MOVS     r0,#0
        0x00000186:    b082        ..      SUB      sp,sp,#8
        0x00000188:    4605        .F      MOV      r5,r0
        0x0000018a:    2440        @$      MOVS     r4,#0x40
        0x0000018c:    9101        ..      STR      r1,[sp,#4]
        0x0000018e:    9000        ..      STR      r0,[sp,#0]
        0x00000190:    e01b        ..      B        0x1ca ; __aeabi_uldivmod + 76
        0x00000192:    9901        ..      LDR      r1,[sp,#4]
        0x00000194:    4622        "F      MOV      r2,r4
        0x00000196:    460f        .F      MOV      r7,r1
        0x00000198:    4630        0F      MOV      r0,r6
        0x0000019a:    f000f843    ..C.    BL       __aeabi_llsr ; 0x224
        0x0000019e:    9a04        ..      LDR      r2,[sp,#0x10]
        0x000001a0:    9b05        ..      LDR      r3,[sp,#0x14]
        0x000001a2:    1a80        ..      SUBS     r0,r0,r2
        0x000001a4:    4199        .A      SBCS     r1,r1,r3
        0x000001a6:    d310        ..      BCC      0x1ca ; __aeabi_uldivmod + 76
        0x000001a8:    4610        .F      MOV      r0,r2
        0x000001aa:    4619        .F      MOV      r1,r3
        0x000001ac:    4622        "F      MOV      r2,r4
        0x000001ae:    f000f829    ..).    BL       __aeabi_llsl ; 0x204
        0x000001b2:    1a36        6.      SUBS     r6,r6,r0
        0x000001b4:    418f        .A      SBCS     r7,r7,r1
        0x000001b6:    9701        ..      STR      r7,[sp,#4]
        0x000001b8:    4622        "F      MOV      r2,r4
        0x000001ba:    2001        .       MOVS     r0,#1
        0x000001bc:    2100        .!      MOVS     r1,#0
        0x000001be:    9f00        ..      LDR      r7,[sp,#0]
        0x000001c0:    f000f820    .. .    BL       __aeabi_llsl ; 0x204
        0x000001c4:    1838        8.      ADDS     r0,r7,r0
        0x000001c6:    414d        MA      ADCS     r5,r5,r1
        0x000001c8:    9000        ..      STR      r0,[sp,#0]
        0x000001ca:    4620         F      MOV      r0,r4
        0x000001cc:    1e64        d.      SUBS     r4,r4,#1
        0x000001ce:    2800        .(      CMP      r0,#0
        0x000001d0:    dcdf        ..      BGT      0x192 ; __aeabi_uldivmod + 20
        0x000001d2:    9b01        ..      LDR      r3,[sp,#4]
        0x000001d4:    9800        ..      LDR      r0,[sp,#0]
        0x000001d6:    4629        )F      MOV      r1,r5
        0x000001d8:    4632        2F      MOV      r2,r6
        0x000001da:    b007        ..      ADD      sp,sp,#0x1c
        0x000001dc:    bdf0        ..      POP      {r4-r7,pc}
        0x000001de:    0000        ..      MOVS     r0,r0
    .text
    __scatterload
    __scatterload_rt2
        0x000001e0:    4c06        .L      LDR      r4,[pc,#24] ; [0x1fc] = 0x218c
        0x000001e2:    2501        .%      MOVS     r5,#1
        0x000001e4:    4e06        .N      LDR      r6,[pc,#24] ; [0x200] = 0x21ac
        0x000001e6:    e005        ..      B        0x1f4 ; __scatterload + 20
        0x000001e8:    68e3        .h      LDR      r3,[r4,#0xc]
        0x000001ea:    cc07        ..      LDM      r4!,{r0-r2}
        0x000001ec:    432b        +C      ORRS     r3,r3,r5
        0x000001ee:    3c0c        .<      SUBS     r4,r4,#0xc
        0x000001f0:    4798        .G      BLX      r3
        0x000001f2:    3410        .4      ADDS     r4,r4,#0x10
        0x000001f4:    42b4        .B      CMP      r4,r6
        0x000001f6:    d3f7        ..      BCC      0x1e8 ; __scatterload + 8
        0x000001f8:    f7ffff66    ..f.    BL       __main_after_scatterload ; 0xc8
    $d
        0x000001fc:    0000218c    .!..    DCD    8588
        0x00000200:    000021ac    .!..    DCD    8620
    $t
    .text
    __aeabi_llsl
    _ll_shift_l
        0x00000204:    b510        ..      PUSH     {r4,lr}
        0x00000206:    2a20         *      CMP      r2,#0x20
        0x00000208:    db04        ..      BLT      0x214 ; __aeabi_llsl + 16
        0x0000020a:    4601        .F      MOV      r1,r0
        0x0000020c:    3a20         :      SUBS     r2,r2,#0x20
        0x0000020e:    4091        .@      LSLS     r1,r1,r2
        0x00000210:    2000        .       MOVS     r0,#0
        0x00000212:    bd10        ..      POP      {r4,pc}
        0x00000214:    4091        .@      LSLS     r1,r1,r2
        0x00000216:    2320         #      MOVS     r3,#0x20
        0x00000218:    1a9c        ..      SUBS     r4,r3,r2
        0x0000021a:    4603        .F      MOV      r3,r0
        0x0000021c:    40e3        .@      LSRS     r3,r3,r4
        0x0000021e:    4319        .C      ORRS     r1,r1,r3
        0x00000220:    4090        .@      LSLS     r0,r0,r2
        0x00000222:    bd10        ..      POP      {r4,pc}
    .text
    __aeabi_llsr
    _ll_ushift_r
        0x00000224:    b510        ..      PUSH     {r4,lr}
        0x00000226:    2a20         *      CMP      r2,#0x20
        0x00000228:    db04        ..      BLT      0x234 ; __aeabi_llsr + 16
        0x0000022a:    4608        .F      MOV      r0,r1
        0x0000022c:    3a20         :      SUBS     r2,r2,#0x20
        0x0000022e:    40d0        .@      LSRS     r0,r0,r2
        0x00000230:    2100        .!      MOVS     r1,#0
        0x00000232:    bd10        ..      POP      {r4,pc}
        0x00000234:    460b        .F      MOV      r3,r1
        0x00000236:    40d3        .@      LSRS     r3,r3,r2
        0x00000238:    40d0        .@      LSRS     r0,r0,r2
        0x0000023a:    2420         $      MOVS     r4,#0x20
        0x0000023c:    1aa2        ..      SUBS     r2,r4,r2
        0x0000023e:    4091        .@      LSLS     r1,r1,r2
        0x00000240:    4308        .C      ORRS     r0,r0,r1
        0x00000242:    4619        .F      MOV      r1,r3
        0x00000244:    bd10        ..      POP      {r4,pc}
        0x00000246:    0000        ..      MOVS     r0,r0
    i.CLK_EnableModuleClock
    CLK_EnableModuleClock
        0x00000248:    b51f        ..      PUSH     {r0-r4,lr}
        0x0000024a:    4909        .I      LDR      r1,[pc,#36] ; [0x270] = 0x2084
        0x0000024c:    c91e        ..      LDM      r1,{r1-r4}
        0x0000024e:    9403        ..      STR      r4,[sp,#0xc]
        0x00000250:    466c        lF      MOV      r4,sp
        0x00000252:    c40e        ..      STM      r4!,{r1-r3}
        0x00000254:    0f81        ..      LSRS     r1,r0,#30
        0x00000256:    008a        ..      LSLS     r2,r1,#2
        0x00000258:    4669        iF      MOV      r1,sp
        0x0000025a:    588a        .X      LDR      r2,[r1,r2]
        0x0000025c:    4905        .I      LDR      r1,[pc,#20] ; [0x274] = 0x50000200
        0x0000025e:    1851        Q.      ADDS     r1,r2,r1
        0x00000260:    684a        Jh      LDR      r2,[r1,#4]
        0x00000262:    06c3        ..      LSLS     r3,r0,#27
        0x00000264:    0edb        ..      LSRS     r3,r3,#27
        0x00000266:    2001        .       MOVS     r0,#1
        0x00000268:    4098        .@      LSLS     r0,r0,r3
        0x0000026a:    4302        .C      ORRS     r2,r2,r0
        0x0000026c:    604a        J`      STR      r2,[r1,#4]
        0x0000026e:    bd1f        ..      POP      {r0-r4,pc}
    $d
        0x00000270:    00002084    . ..    DCD    8324
        0x00000274:    50000200    ...P    DCD    1342177792
    $t
    i.CLK_EnablePLL
    CLK_EnablePLL
        0x00000278:    b5f0        ..      PUSH     {r4-r7,lr}
        0x0000027a:    0007        ..      MOVS     r7,r0
        0x0000027c:    460c        .F      MOV      r4,r1
        0x0000027e:    4856        VH      LDR      r0,[pc,#344] ; [0x3d8] = 0x50000200
        0x00000280:    b085        ..      SUB      sp,sp,#0x14
        0x00000282:    4954        TI      LDR      r1,[pc,#336] ; [0x3d4] = 0x10000
        0x00000284:    6201        .b      STR      r1,[r0,#0x20]
        0x00000286:    4e55        UN      LDR      r6,[pc,#340] ; [0x3dc] = 0xb71b00
        0x00000288:    6801        .h      LDR      r1,[r0,#0]
        0x0000028a:    d013        ..      BEQ      0x2b4 ; CLK_EnablePLL + 60
        0x0000028c:    2204        ."      MOVS     r2,#4
        0x0000028e:    4311        .C      ORRS     r1,r1,r2
        0x00000290:    6001        .`      STR      r1,[r0,#0]
        0x00000292:    2010        .       MOVS     r0,#0x10
        0x00000294:    f000f9d0    ....    BL       CLK_WaitClockReady ; 0x638
        0x00000298:    2001        .       MOVS     r0,#1
        0x0000029a:    04c0        ..      LSLS     r0,r0,#19
        0x0000029c:    9002        ..      STR      r0,[sp,#8]
        0x0000029e:    4850        PH      LDR      r0,[pc,#320] ; [0x3e0] = 0x1518000
        0x000002a0:    2504        .%      MOVS     r5,#4
        0x000002a2:    9003        ..      STR      r0,[sp,#0xc]
        0x000002a4:    484f        OH      LDR      r0,[pc,#316] ; [0x3e4] = 0xfa0a1eff
        0x000002a6:    4950        PI      LDR      r1,[pc,#320] ; [0x3e8] = 0x5f5e0ff
        0x000002a8:    1820         .      ADDS     r0,r4,r0
        0x000002aa:    4288        .B      CMP      r0,r1
        0x000002ac:    d80d        ..      BHI      0x2ca ; CLK_EnablePLL + 82
        0x000002ae:    2000        .       MOVS     r0,#0
        0x000002b0:    9004        ..      STR      r0,[sp,#0x10]
        0x000002b2:    e01c        ..      B        0x2ee ; CLK_EnablePLL + 118
        0x000002b4:    2201        ."      MOVS     r2,#1
        0x000002b6:    4311        .C      ORRS     r1,r1,r2
        0x000002b8:    6001        .`      STR      r1,[r0,#0]
        0x000002ba:    4610        .F      MOV      r0,r2
        0x000002bc:    f000f9bc    ....    BL       CLK_WaitClockReady ; 0x638
        0x000002c0:    2000        .       MOVS     r0,#0
        0x000002c2:    2502        .%      MOVS     r5,#2
        0x000002c4:    9603        ..      STR      r6,[sp,#0xc]
        0x000002c6:    9002        ..      STR      r0,[sp,#8]
        0x000002c8:    e7ec        ..      B        0x2a4 ; CLK_EnablePLL + 44
        0x000002ca:    4848        HH      LDR      r0,[pc,#288] ; [0x3ec] = 0xfd050f7f
        0x000002cc:    4948        HI      LDR      r1,[pc,#288] ; [0x3f0] = 0x2faf07f
        0x000002ce:    1820         .      ADDS     r0,r4,r0
        0x000002d0:    4288        .B      CMP      r0,r1
        0x000002d2:    d803        ..      BHI      0x2dc ; CLK_EnablePLL + 100
        0x000002d4:    2001        .       MOVS     r0,#1
        0x000002d6:    0064        d.      LSLS     r4,r4,#1
        0x000002d8:    9004        ..      STR      r0,[sp,#0x10]
        0x000002da:    e008        ..      B        0x2ee ; CLK_EnablePLL + 118
        0x000002dc:    4845        EH      LDR      r0,[pc,#276] ; [0x3f4] = 0xfe8287c0
        0x000002de:    4945        EI      LDR      r1,[pc,#276] ; [0x3f4] = 0xfe8287c0
        0x000002e0:    1820         .      ADDS     r0,r4,r0
        0x000002e2:    4249        IB      RSBS     r1,r1,#0
        0x000002e4:    4288        .B      CMP      r0,r1
        0x000002e6:    d849        I.      BHI      0x37c ; CLK_EnablePLL + 260
        0x000002e8:    2003        .       MOVS     r0,#3
        0x000002ea:    00a4        ..      LSLS     r4,r4,#2
        0x000002ec:    9004        ..      STR      r0,[sp,#0x10]
        0x000002ee:    2600        .&      MOVS     r6,#0
        0x000002f0:    43f6        .C      MVNS     r6,r6
        0x000002f2:    2000        .       MOVS     r0,#0
        0x000002f4:    9000        ..      STR      r0,[sp,#0]
        0x000002f6:    9001        ..      STR      r0,[sp,#4]
        0x000002f8:    e021        !.      B        0x33e ; CLK_EnablePLL + 198
        0x000002fa:    4629        )F      MOV      r1,r5
        0x000002fc:    9803        ..      LDR      r0,[sp,#0xc]
        0x000002fe:    f7ffff0f    ....    BL       __aeabi_uidiv ; 0x120
        0x00000302:    493d        =I      LDR      r1,[pc,#244] ; [0x3f8] = 0xffe795ff
        0x00000304:    4a3d        =J      LDR      r2,[pc,#244] ; [0x3fc] = 0xcc77bf
        0x00000306:    1841        A.      ADDS     r1,r0,r1
        0x00000308:    4291        .B      CMP      r1,r2
        0x0000030a:    d217        ..      BCS      0x33c ; CLK_EnablePLL + 196
        0x0000030c:    2202        ."      MOVS     r2,#2
        0x0000030e:    4b35        5K      LDR      r3,[pc,#212] ; [0x3e4] = 0xfa0a1eff
        0x00000310:    4601        .F      MOV      r1,r0
        0x00000312:    4351        QC      MULS     r1,r2,r1
        0x00000314:    1c5b        [.      ADDS     r3,r3,#1
        0x00000316:    18cf        ..      ADDS     r7,r1,r3
        0x00000318:    425b        [B      RSBS     r3,r3,#0
        0x0000031a:    429f        .B      CMP      r7,r3
        0x0000031c:    d80a        ..      BHI      0x334 ; CLK_EnablePLL + 188
        0x0000031e:    42a1        .B      CMP      r1,r4
        0x00000320:    d901        ..      BLS      0x326 ; CLK_EnablePLL + 174
        0x00000322:    1b0b        ..      SUBS     r3,r1,r4
        0x00000324:    e000        ..      B        0x328 ; CLK_EnablePLL + 176
        0x00000326:    1a63        c.      SUBS     r3,r4,r1
        0x00000328:    42b3        .B      CMP      r3,r6
        0x0000032a:    d203        ..      BCS      0x334 ; CLK_EnablePLL + 188
        0x0000032c:    001e        ..      MOVS     r6,r3
        0x0000032e:    9500        ..      STR      r5,[sp,#0]
        0x00000330:    9201        ..      STR      r2,[sp,#4]
        0x00000332:    d003        ..      BEQ      0x33c ; CLK_EnablePLL + 196
        0x00000334:    4932        2I      LDR      r1,[pc,#200] ; [0x400] = 0x201
        0x00000336:    1c52        R.      ADDS     r2,r2,#1
        0x00000338:    428a        .B      CMP      r2,r1
        0x0000033a:    d9e8        ..      BLS      0x30e ; CLK_EnablePLL + 150
        0x0000033c:    1c6d        m.      ADDS     r5,r5,#1
        0x0000033e:    2d21        !-      CMP      r5,#0x21
        0x00000340:    d9db        ..      BLS      0x2fa ; CLK_EnablePLL + 130
        0x00000342:    9804        ..      LDR      r0,[sp,#0x10]
        0x00000344:    9902        ..      LDR      r1,[sp,#8]
        0x00000346:    0380        ..      LSLS     r0,r0,#14
        0x00000348:    4308        .C      ORRS     r0,r0,r1
        0x0000034a:    9900        ..      LDR      r1,[sp,#0]
        0x0000034c:    2201        ."      MOVS     r2,#1
        0x0000034e:    0249        I.      LSLS     r1,r1,#9
        0x00000350:    0292        ..      LSLS     r2,r2,#10
        0x00000352:    1a89        ..      SUBS     r1,r1,r2
        0x00000354:    4308        .C      ORRS     r0,r0,r1
        0x00000356:    9901        ..      LDR      r1,[sp,#4]
        0x00000358:    1e89        ..      SUBS     r1,r1,#2
        0x0000035a:    4308        .C      ORRS     r0,r0,r1
        0x0000035c:    491e        .I      LDR      r1,[pc,#120] ; [0x3d8] = 0x50000200
        0x0000035e:    6208        .b      STR      r0,[r1,#0x20]
        0x00000360:    2004        .       MOVS     r0,#4
        0x00000362:    f000f969    ..i.    BL       CLK_WaitClockReady ; 0x638
        0x00000366:    9904        ..      LDR      r1,[sp,#0x10]
        0x00000368:    9800        ..      LDR      r0,[sp,#0]
        0x0000036a:    1c49        I.      ADDS     r1,r1,#1
        0x0000036c:    4341        AC      MULS     r1,r0,r1
        0x0000036e:    9803        ..      LDR      r0,[sp,#0xc]
        0x00000370:    f7fffed6    ....    BL       __aeabi_uidiv ; 0x120
        0x00000374:    9901        ..      LDR      r1,[sp,#4]
        0x00000376:    4348        HC      MULS     r0,r1,r0
        0x00000378:    b005        ..      ADD      sp,sp,#0x14
        0x0000037a:    bdf0        ..      POP      {r4-r7,pc}
        0x0000037c:    2f00        ./      CMP      r7,#0
        0x0000037e:    d00f        ..      BEQ      0x3a0 ; CLK_EnablePLL + 296
        0x00000380:    4920         I      LDR      r1,[pc,#128] ; [0x404] = 0xd66f
        0x00000382:    4815        .H      LDR      r0,[pc,#84] ; [0x3d8] = 0x50000200
        0x00000384:    6201        .b      STR      r1,[r0,#0x20]
        0x00000386:    2004        .       MOVS     r0,#4
        0x00000388:    f000f956    ..V.    BL       CLK_WaitClockReady ; 0x638
        0x0000038c:    a01e        ..      ADR      r0,{pc}+0x7c ; 0x408
        0x0000038e:    6800        .h      LDR      r0,[r0,#0]
        0x00000390:    9000        ..      STR      r0,[sp,#0]
        0x00000392:    4811        .H      LDR      r0,[pc,#68] ; [0x3d8] = 0x50000200
        0x00000394:    6a01        .j      LDR      r1,[r0,#0x20]
        0x00000396:    1300        ..      ASRS     r0,r0,#12
        0x00000398:    4201        .B      TST      r1,r0
        0x0000039a:    d003        ..      BEQ      0x3a4 ; CLK_EnablePLL + 300
        0x0000039c:    2000        .       MOVS     r0,#0
        0x0000039e:    e7eb        ..      B        0x378 ; CLK_EnablePLL + 256
        0x000003a0:    491a        .I      LDR      r1,[pc,#104] ; [0x40c] = 0xc22e
        0x000003a2:    e7ee        ..      B        0x382 ; CLK_EnablePLL + 266
        0x000003a4:    0308        ..      LSLS     r0,r1,#12
        0x000003a6:    d500        ..      BPL      0x3aa ; CLK_EnablePLL + 306
        0x000003a8:    4e0d        .N      LDR      r6,[pc,#52] ; [0x3e0] = 0x1518000
        0x000003aa:    0388        ..      LSLS     r0,r1,#14
        0x000003ac:    d501        ..      BPL      0x3b2 ; CLK_EnablePLL + 314
        0x000003ae:    4630        0F      MOV      r0,r6
        0x000003b0:    e7e2        ..      B        0x378 ; CLK_EnablePLL + 256
        0x000003b2:    0408        ..      LSLS     r0,r1,#16
        0x000003b4:    0f80        ..      LSRS     r0,r0,#30
        0x000003b6:    466a        jF      MOV      r2,sp
        0x000003b8:    5c10        .\      LDRB     r0,[r2,r0]
        0x000003ba:    05ca        ..      LSLS     r2,r1,#23
        0x000003bc:    0489        ..      LSLS     r1,r1,#18
        0x000003be:    0ec9        ..      LSRS     r1,r1,#27
        0x000003c0:    1c89        ..      ADDS     r1,r1,#2
        0x000003c2:    0dd2        ..      LSRS     r2,r2,#23
        0x000003c4:    4341        AC      MULS     r1,r0,r1
        0x000003c6:    08b0        ..      LSRS     r0,r6,#2
        0x000003c8:    1c92        ..      ADDS     r2,r2,#2
        0x000003ca:    4350        PC      MULS     r0,r2,r0
        0x000003cc:    f7fffea8    ....    BL       __aeabi_uidiv ; 0x120
        0x000003d0:    0080        ..      LSLS     r0,r0,#2
        0x000003d2:    e7d1        ..      B        0x378 ; CLK_EnablePLL + 256
    $d
        0x000003d4:    00010000    ....    DCD    65536
        0x000003d8:    50000200    ...P    DCD    1342177792
        0x000003dc:    00b71b00    ....    DCD    12000000
        0x000003e0:    01518000    ..Q.    DCD    22118400
        0x000003e4:    fa0a1eff    ....    DCD    4194967295
        0x000003e8:    05f5e0ff    ....    DCD    99999999
        0x000003ec:    fd050f7f    ....    DCD    4244967295
        0x000003f0:    02faf07f    ....    DCD    49999999
        0x000003f4:    fe8287c0    ....    DCD    4269967296
        0x000003f8:    ffe795ff    ....    DCD    4293367295
        0x000003fc:    00cc77bf    .w..    DCD    13399999
        0x00000400:    00000201    ....    DCD    513
        0x00000404:    0000d66f    o...    DCD    54895
        0x00000408:    04020201    ....    DCD    67240449
        0x0000040c:    0000c22e    ....    DCD    49710
    $t
    i.CLK_EnableXtalRC
    CLK_EnableXtalRC
        0x00000410:    4902        .I      LDR      r1,[pc,#8] ; [0x41c] = 0x50000200
        0x00000412:    680a        .h      LDR      r2,[r1,#0]
        0x00000414:    4302        .C      ORRS     r2,r2,r0
        0x00000416:    600a        .`      STR      r2,[r1,#0]
        0x00000418:    4770        pG      BX       lr
    $d
        0x0000041a:    0000        ..      DCW    0
        0x0000041c:    50000200    ...P    DCD    1342177792
    $t
    i.CLK_GetHCLKFreq
    CLK_GetHCLKFreq
        0x00000420:    b510        ..      PUSH     {r4,lr}
        0x00000422:    f000fd8b    ....    BL       SystemCoreClockUpdate ; 0xf3c
        0x00000426:    4801        .H      LDR      r0,[pc,#4] ; [0x42c] = 0x20000000
        0x00000428:    6800        .h      LDR      r0,[r0,#0]
        0x0000042a:    bd10        ..      POP      {r4,pc}
    $d
        0x0000042c:    20000000    ...     DCD    536870912
    $t
    i.CLK_GetPLLClockFreq
    CLK_GetPLLClockFreq
        0x00000430:    b508        ..      PUSH     {r3,lr}
        0x00000432:    a011        ..      ADR      r0,{pc}+0x46 ; 0x478
        0x00000434:    6800        .h      LDR      r0,[r0,#0]
        0x00000436:    9000        ..      STR      r0,[sp,#0]
        0x00000438:    4810        .H      LDR      r0,[pc,#64] ; [0x47c] = 0x50000200
        0x0000043a:    6a01        .j      LDR      r1,[r0,#0x20]
        0x0000043c:    1300        ..      ASRS     r0,r0,#12
        0x0000043e:    4201        .B      TST      r1,r0
        0x00000440:    d001        ..      BEQ      0x446 ; CLK_GetPLLClockFreq + 22
        0x00000442:    2000        .       MOVS     r0,#0
        0x00000444:    bd08        ..      POP      {r3,pc}
        0x00000446:    0308        ..      LSLS     r0,r1,#12
        0x00000448:    d501        ..      BPL      0x44e ; CLK_GetPLLClockFreq + 30
        0x0000044a:    480d        .H      LDR      r0,[pc,#52] ; [0x480] = 0x1518000
        0x0000044c:    e000        ..      B        0x450 ; CLK_GetPLLClockFreq + 32
        0x0000044e:    480d        .H      LDR      r0,[pc,#52] ; [0x484] = 0xb71b00
        0x00000450:    038a        ..      LSLS     r2,r1,#14
        0x00000452:    d4f7        ..      BMI      0x444 ; CLK_GetPLLClockFreq + 20
        0x00000454:    040a        ..      LSLS     r2,r1,#16
        0x00000456:    0f92        ..      LSRS     r2,r2,#30
        0x00000458:    466b        kF      MOV      r3,sp
        0x0000045a:    5c9b        .\      LDRB     r3,[r3,r2]
        0x0000045c:    05ca        ..      LSLS     r2,r1,#23
        0x0000045e:    0489        ..      LSLS     r1,r1,#18
        0x00000460:    0dd2        ..      LSRS     r2,r2,#23
        0x00000462:    0ec9        ..      LSRS     r1,r1,#27
        0x00000464:    1c89        ..      ADDS     r1,r1,#2
        0x00000466:    0880        ..      LSRS     r0,r0,#2
        0x00000468:    1c92        ..      ADDS     r2,r2,#2
        0x0000046a:    4359        YC      MULS     r1,r3,r1
        0x0000046c:    4350        PC      MULS     r0,r2,r0
        0x0000046e:    f7fffe57    ..W.    BL       __aeabi_uidiv ; 0x120
        0x00000472:    0080        ..      LSLS     r0,r0,#2
        0x00000474:    bd08        ..      POP      {r3,pc}
    $d
        0x00000476:    0000        ..      DCW    0
        0x00000478:    04020201    ....    DCD    67240449
        0x0000047c:    50000200    ...P    DCD    1342177792
        0x00000480:    01518000    ..Q.    DCD    22118400
        0x00000484:    00b71b00    ....    DCD    12000000
    $t
    i.CLK_SetCoreClock
    CLK_SetCoreClock
        0x00000488:    b5f8        ..      PUSH     {r3-r7,lr}
        0x0000048a:    4c1b        .L      LDR      r4,[pc,#108] ; [0x4f8] = 0x50000200
        0x0000048c:    68e5        .h      LDR      r5,[r4,#0xc]
        0x0000048e:    2110        .!      MOVS     r1,#0x10
        0x00000490:    400d        .@      ANDS     r5,r5,r1
        0x00000492:    491a        .I      LDR      r1,[pc,#104] ; [0x4fc] = 0x2faf080
        0x00000494:    4288        .B      CMP      r0,r1
        0x00000496:    d802        ..      BHI      0x49e ; CLK_SetCoreClock + 22
        0x00000498:    1049        I.      ASRS     r1,r1,#1
        0x0000049a:    4288        .B      CMP      r0,r1
        0x0000049c:    d200        ..      BCS      0x4a0 ; CLK_SetCoreClock + 24
        0x0000049e:    4608        .F      MOV      r0,r1
        0x000004a0:    6821        !h      LDR      r1,[r4,#0]
        0x000004a2:    2604        .&      MOVS     r6,#4
        0x000004a4:    4331        1C      ORRS     r1,r1,r6
        0x000004a6:    6021        !`      STR      r1,[r4,#0]
        0x000004a8:    68e1        .h      LDR      r1,[r4,#0xc]
        0x000004aa:    06c9        ..      LSLS     r1,r1,#27
        0x000004ac:    d5fc        ..      BPL      0x4a8 ; CLK_SetCoreClock + 32
        0x000004ae:    6921        !i      LDR      r1,[r4,#0x10]
        0x000004b0:    2207        ."      MOVS     r2,#7
        0x000004b2:    4311        .C      ORRS     r1,r1,r2
        0x000004b4:    6121        !a      STR      r1,[r4,#0x10]
        0x000004b6:    6a21        !j      LDR      r1,[r4,#0x20]
        0x000004b8:    2201        ."      MOVS     r2,#1
        0x000004ba:    0412        ..      LSLS     r2,r2,#16
        0x000004bc:    4311        .C      ORRS     r1,r1,r2
        0x000004be:    6221        !b      STR      r1,[r4,#0x20]
        0x000004c0:    68e1        .h      LDR      r1,[r4,#0xc]
        0x000004c2:    07c9        ..      LSLS     r1,r1,#31
        0x000004c4:    4601        .F      MOV      r1,r0
        0x000004c6:    d004        ..      BEQ      0x4d2 ; CLK_SetCoreClock + 74
        0x000004c8:    2000        .       MOVS     r0,#0
        0x000004ca:    f7fffed5    ....    BL       CLK_EnablePLL ; 0x278
        0x000004ce:    4607        .F      MOV      r7,r0
        0x000004d0:    e007        ..      B        0x4e2 ; CLK_SetCoreClock + 90
        0x000004d2:    2001        .       MOVS     r0,#1
        0x000004d4:    04c0        ..      LSLS     r0,r0,#19
        0x000004d6:    f7fffecf    ....    BL       CLK_EnablePLL ; 0x278
        0x000004da:    68e5        .h      LDR      r5,[r4,#0xc]
        0x000004dc:    4607        .F      MOV      r7,r0
        0x000004de:    2010        .       MOVS     r0,#0x10
        0x000004e0:    4005        .@      ANDS     r5,r5,r0
        0x000004e2:    2100        .!      MOVS     r1,#0
        0x000004e4:    2002        .       MOVS     r0,#2
        0x000004e6:    f000f80b    ....    BL       CLK_SetHCLK ; 0x500
        0x000004ea:    2d00        .-      CMP      r5,#0
        0x000004ec:    d102        ..      BNE      0x4f4 ; CLK_SetCoreClock + 108
        0x000004ee:    6820         h      LDR      r0,[r4,#0]
        0x000004f0:    43b0        .C      BICS     r0,r0,r6
        0x000004f2:    6020         `      STR      r0,[r4,#0]
        0x000004f4:    4638        8F      MOV      r0,r7
        0x000004f6:    bdf8        ..      POP      {r3-r7,pc}
    $d
        0x000004f8:    50000200    ...P    DCD    1342177792
        0x000004fc:    02faf080    ....    DCD    50000000
    $t
    i.CLK_SetHCLK
    CLK_SetHCLK
        0x00000500:    b570        p.      PUSH     {r4-r6,lr}
        0x00000502:    4c10        .L      LDR      r4,[pc,#64] ; [0x544] = 0x50000200
        0x00000504:    68e5        .h      LDR      r5,[r4,#0xc]
        0x00000506:    2610        .&      MOVS     r6,#0x10
        0x00000508:    6822        "h      LDR      r2,[r4,#0]
        0x0000050a:    4035        5@      ANDS     r5,r5,r6
        0x0000050c:    2304        .#      MOVS     r3,#4
        0x0000050e:    431a        .C      ORRS     r2,r2,r3
        0x00000510:    6022        "`      STR      r2,[r4,#0]
        0x00000512:    68e2        .h      LDR      r2,[r4,#0xc]
        0x00000514:    06d2        ..      LSLS     r2,r2,#27
        0x00000516:    d5fc        ..      BPL      0x512 ; CLK_SetHCLK + 18
        0x00000518:    6922        "i      LDR      r2,[r4,#0x10]
        0x0000051a:    2307        .#      MOVS     r3,#7
        0x0000051c:    431a        .C      ORRS     r2,r2,r3
        0x0000051e:    6122        "a      STR      r2,[r4,#0x10]
        0x00000520:    69a2        .i      LDR      r2,[r4,#0x18]
        0x00000522:    0912        ..      LSRS     r2,r2,#4
        0x00000524:    0112        ..      LSLS     r2,r2,#4
        0x00000526:    430a        .C      ORRS     r2,r2,r1
        0x00000528:    61a2        .a      STR      r2,[r4,#0x18]
        0x0000052a:    6921        !i      LDR      r1,[r4,#0x10]
        0x0000052c:    4399        .C      BICS     r1,r1,r3
        0x0000052e:    4301        .C      ORRS     r1,r1,r0
        0x00000530:    6121        !a      STR      r1,[r4,#0x10]
        0x00000532:    f000fd03    ....    BL       SystemCoreClockUpdate ; 0xf3c
        0x00000536:    2d00        .-      CMP      r5,#0
        0x00000538:    d102        ..      BNE      0x540 ; CLK_SetHCLK + 64
        0x0000053a:    6820         h      LDR      r0,[r4,#0]
        0x0000053c:    43b0        .C      BICS     r0,r0,r6
        0x0000053e:    6020         `      STR      r0,[r4,#0]
        0x00000540:    bd70        p.      POP      {r4-r6,pc}
    $d
        0x00000542:    0000        ..      DCW    0
        0x00000544:    50000200    ...P    DCD    1342177792
    $t
    i.CLK_SetModuleClock
    CLK_SetModuleClock
        0x00000548:    b5f0        ..      PUSH     {r4-r7,lr}
        0x0000054a:    4b2c        ,K      LDR      r3,[pc,#176] ; [0x5fc] = 0x206c
        0x0000054c:    b086        ..      SUB      sp,sp,#0x18
        0x0000054e:    461c        .F      MOV      r4,r3
        0x00000550:    3408        .4      ADDS     r4,r4,#8
        0x00000552:    ccf0        ..      LDM      r4,{r4-r7}
        0x00000554:    9400        ..      STR      r4,[sp,#0]
        0x00000556:    ac01        ..      ADD      r4,sp,#4
        0x00000558:    c4e0        ..      STM      r4!,{r5-r7}
        0x0000055a:    cb18        ..      LDM      r3,{r3,r4}
        0x0000055c:    9304        ..      STR      r3,[sp,#0x10]
        0x0000055e:    0e43        C.      LSRS     r3,r0,#25
        0x00000560:    9405        ..      STR      r4,[sp,#0x14]
        0x00000562:    075b        [.      LSLS     r3,r3,#29
        0x00000564:    d034        4.      BEQ      0x5d0 ; CLK_SetModuleClock + 136
        0x00000566:    0083        ..      LSLS     r3,r0,#2
        0x00000568:    0f9b        ..      LSRS     r3,r3,#30
        0x0000056a:    009b        ..      LSLS     r3,r3,#2
        0x0000056c:    466c        lF      MOV      r4,sp
        0x0000056e:    58e3        .X      LDR      r3,[r4,r3]
        0x00000570:    4c23        #L      LDR      r4,[pc,#140] ; [0x600] = 0x50000210
        0x00000572:    191b        ..      ADDS     r3,r3,r4
        0x00000574:    0104        ..      LSLS     r4,r0,#4
        0x00000576:    0f65        e.      LSRS     r5,r4,#29
        0x00000578:    01c4        ..      LSLS     r4,r0,#7
        0x0000057a:    0ee4        ..      LSRS     r4,r4,#27
        0x0000057c:    40a5        .@      LSLS     r5,r5,r4
        0x0000057e:    681c        .h      LDR      r4,[r3,#0]
        0x00000580:    43ac        .C      BICS     r4,r4,r5
        0x00000582:    430c        .C      ORRS     r4,r4,r1
        0x00000584:    601c        .`      STR      r4,[r3,#0]
        0x00000586:    4b1e        .K      LDR      r3,[pc,#120] ; [0x600] = 0x50000210
        0x00000588:    4c1e        .L      LDR      r4,[pc,#120] ; [0x604] = 0x57c00014
        0x0000058a:    3b10        .;      SUBS     r3,r3,#0x10
        0x0000058c:    42a0        .B      CMP      r0,r4
        0x0000058e:    d107        ..      BNE      0x5a0 ; CLK_SetModuleClock + 88
        0x00000590:    69dd        .i      LDR      r5,[r3,#0x1c]
        0x00000592:    24ff        .$      MOVS     r4,#0xff
        0x00000594:    3401        .4      ADDS     r4,#1
        0x00000596:    43a5        .C      BICS     r5,r5,r4
        0x00000598:    4021        !@      ANDS     r1,r1,r4
        0x0000059a:    430d        .C      ORRS     r5,r5,r1
        0x0000059c:    61dd        .a      STR      r5,[r3,#0x1c]
        0x0000059e:    e017        ..      B        0x5d0 ; CLK_SetModuleClock + 136
        0x000005a0:    4c19        .L      LDR      r4,[pc,#100] ; [0x608] = 0x57e00015
        0x000005a2:    42a0        .B      CMP      r0,r4
        0x000005a4:    d103        ..      BNE      0x5ae ; CLK_SetModuleClock + 102
        0x000005a6:    69dc        .i      LDR      r4,[r3,#0x1c]
        0x000005a8:    2501        .%      MOVS     r5,#1
        0x000005aa:    026d        m.      LSLS     r5,r5,#9
        0x000005ac:    e00c        ..      B        0x5c8 ; CLK_SetModuleClock + 128
        0x000005ae:    4c17        .L      LDR      r4,[pc,#92] ; [0x60c] = 0x66400016
        0x000005b0:    42a0        .B      CMP      r0,r4
        0x000005b2:    d103        ..      BNE      0x5bc ; CLK_SetModuleClock + 116
        0x000005b4:    69dc        .i      LDR      r4,[r3,#0x1c]
        0x000005b6:    2501        .%      MOVS     r5,#1
        0x000005b8:    02ad        ..      LSLS     r5,r5,#10
        0x000005ba:    e005        ..      B        0x5c8 ; CLK_SetModuleClock + 128
        0x000005bc:    4c14        .L      LDR      r4,[pc,#80] ; [0x610] = 0x66600017
        0x000005be:    42a0        .B      CMP      r0,r4
        0x000005c0:    d106        ..      BNE      0x5d0 ; CLK_SetModuleClock + 136
        0x000005c2:    69dc        .i      LDR      r4,[r3,#0x1c]
        0x000005c4:    2501        .%      MOVS     r5,#1
        0x000005c6:    02ed        ..      LSLS     r5,r5,#11
        0x000005c8:    43ac        .C      BICS     r4,r4,r5
        0x000005ca:    4029        )@      ANDS     r1,r1,r5
        0x000005cc:    430c        .C      ORRS     r4,r4,r1
        0x000005ce:    61dc        .a      STR      r4,[r3,#0x1c]
        0x000005d0:    0a83        ..      LSRS     r3,r0,#10
        0x000005d2:    0619        ..      LSLS     r1,r3,#24
        0x000005d4:    0e09        ..      LSRS     r1,r1,#24
        0x000005d6:    d00f        ..      BEQ      0x5f8 ; CLK_SetModuleClock + 176
        0x000005d8:    0301        ..      LSLS     r1,r0,#12
        0x000005da:    0f89        ..      LSRS     r1,r1,#30
        0x000005dc:    0089        ..      LSLS     r1,r1,#2
        0x000005de:    ac04        ..      ADD      r4,sp,#0x10
        0x000005e0:    5861        aX      LDR      r1,[r4,r1]
        0x000005e2:    4c07        .L      LDR      r4,[pc,#28] ; [0x600] = 0x50000210
        0x000005e4:    0580        ..      LSLS     r0,r0,#22
        0x000005e6:    3408        .4      ADDS     r4,r4,#8
        0x000005e8:    1909        ..      ADDS     r1,r1,r4
        0x000005ea:    b2db        ..      UXTB     r3,r3
        0x000005ec:    0ec0        ..      LSRS     r0,r0,#27
        0x000005ee:    4083        .@      LSLS     r3,r3,r0
        0x000005f0:    6808        .h      LDR      r0,[r1,#0]
        0x000005f2:    4398        .C      BICS     r0,r0,r3
        0x000005f4:    4310        .C      ORRS     r0,r0,r2
        0x000005f6:    6008        .`      STR      r0,[r1,#0]
        0x000005f8:    b006        ..      ADD      sp,sp,#0x18
        0x000005fa:    bdf0        ..      POP      {r4-r7,pc}
    $d
        0x000005fc:    0000206c    l ..    DCD    8300
        0x00000600:    50000210    ...P    DCD    1342177808
        0x00000604:    57c00014    ...W    DCD    1472200724
        0x00000608:    57e00015    ...W    DCD    1474297877
        0x0000060c:    66400016    ..@f    DCD    1715470358
        0x00000610:    66600017    ..`f    DCD    1717567511
    $t
    i.CLK_SysTickDelay
    CLK_SysTickDelay
        0x00000614:    4906        .I      LDR      r1,[pc,#24] ; [0x630] = 0x20000004
        0x00000616:    6809        .h      LDR      r1,[r1,#0]
        0x00000618:    4348        HC      MULS     r0,r1,r0
        0x0000061a:    4906        .I      LDR      r1,[pc,#24] ; [0x634] = 0xe000e000
        0x0000061c:    6148        Ha      STR      r0,[r1,#0x14]
        0x0000061e:    2200        ."      MOVS     r2,#0
        0x00000620:    618a        .a      STR      r2,[r1,#0x18]
        0x00000622:    2005        .       MOVS     r0,#5
        0x00000624:    6108        .a      STR      r0,[r1,#0x10]
        0x00000626:    6908        .i      LDR      r0,[r1,#0x10]
        0x00000628:    03c0        ..      LSLS     r0,r0,#15
        0x0000062a:    d5fc        ..      BPL      0x626 ; CLK_SysTickDelay + 18
        0x0000062c:    610a        .a      STR      r2,[r1,#0x10]
        0x0000062e:    4770        pG      BX       lr
    $d
        0x00000630:    20000004    ...     DCD    536870916
        0x00000634:    e000e000    ....    DCD    3758153728
    $t
    i.CLK_WaitClockReady
    CLK_WaitClockReady
        0x00000638:    b510        ..      PUSH     {r4,lr}
        0x0000063a:    4604        .F      MOV      r4,r0
        0x0000063c:    4907        .I      LDR      r1,[pc,#28] ; [0x65c] = 0x124f80
        0x0000063e:    4b08        .K      LDR      r3,[pc,#32] ; [0x660] = 0x50000200
        0x00000640:    e005        ..      B        0x64e ; CLK_WaitClockReady + 22
        0x00000642:    460a        .F      MOV      r2,r1
        0x00000644:    1e49        I.      SUBS     r1,r1,#1
        0x00000646:    2a00        .*      CMP      r2,#0
        0x00000648:    dc01        ..      BGT      0x64e ; CLK_WaitClockReady + 22
        0x0000064a:    2000        .       MOVS     r0,#0
        0x0000064c:    bd10        ..      POP      {r4,pc}
        0x0000064e:    68da        .h      LDR      r2,[r3,#0xc]
        0x00000650:    4620         F      MOV      r0,r4
        0x00000652:    4390        .C      BICS     r0,r0,r2
        0x00000654:    d1f5        ..      BNE      0x642 ; CLK_WaitClockReady + 10
        0x00000656:    2001        .       MOVS     r0,#1
        0x00000658:    bd10        ..      POP      {r4,pc}
    $d
        0x0000065a:    0000        ..      DCW    0
        0x0000065c:    00124f80    .O..    DCD    1200000
        0x00000660:    50000200    ...P    DCD    1342177792
    $t
    i.EINT1_IRQHandler
    EINT1_IRQHandler
        0x00000664:    b5f8        ..      PUSH     {r3-r7,lr}
        0x00000666:    4c22        "L      LDR      r4,[pc,#136] ; [0x6f0] = 0x200007fc
        0x00000668:    210a        .!      MOVS     r1,#0xa
        0x0000066a:    7860        `x      LDRB     r0,[r4,#1]
        0x0000066c:    4606        .F      MOV      r6,r0
        0x0000066e:    f7fffd57    ..W.    BL       __aeabi_uidiv ; 0x120
        0x00000672:    2700        .'      MOVS     r7,#0
        0x00000674:    2501        .%      MOVS     r5,#1
        0x00000676:    2901        .)      CMP      r1,#1
        0x00000678:    d002        ..      BEQ      0x680 ; EINT1_IRQHandler + 28
        0x0000067a:    2902        .)      CMP      r1,#2
        0x0000067c:    d014        ..      BEQ      0x6a8 ; EINT1_IRQHandler + 68
        0x0000067e:    e01a        ..      B        0x6b6 ; EINT1_IRQHandler + 82
        0x00000680:    2e01        ..      CMP      r6,#1
        0x00000682:    d004        ..      BEQ      0x68e ; EINT1_IRQHandler + 42
        0x00000684:    2e0b        ..      CMP      r6,#0xb
        0x00000686:    d01c        ..      BEQ      0x6c2 ; EINT1_IRQHandler + 94
        0x00000688:    2e15        ..      CMP      r6,#0x15
        0x0000068a:    d022        ".      BEQ      0x6d2 ; EINT1_IRQHandler + 110
        0x0000068c:    e013        ..      B        0x6b6 ; EINT1_IRQHandler + 82
        0x0000068e:    4919        .I      LDR      r1,[pc,#100] ; [0x6f4] = 0xe000e180
        0x00000690:    2020                MOVS     r0,#0x20
        0x00000692:    6008        .`      STR      r0,[r1,#0]
        0x00000694:    4a18        .J      LDR      r2,[pc,#96] ; [0x6f8] = 0x40010020
        0x00000696:    6810        .h      LDR      r0,[r2,#0]
        0x00000698:    0651        Q.      LSLS     r1,r2,#25
        0x0000069a:    4388        .C      BICS     r0,r0,r1
        0x0000069c:    6010        .`      STR      r0,[r2,#0]
        0x0000069e:    6227        'b      STR      r7,[r4,#0x20]
        0x000006a0:    7427        't      STRB     r7,[r4,#0x10]
        0x000006a2:    7467        gt      STRB     r7,[r4,#0x11]
        0x000006a4:    74a7        .t      STRB     r7,[r4,#0x12]
        0x000006a6:    74e5        .t      STRB     r5,[r4,#0x13]
        0x000006a8:    7227        'r      STRB     r7,[r4,#8]
        0x000006aa:    7267        gr      STRB     r7,[r4,#9]
        0x000006ac:    70e7        .p      STRB     r7,[r4,#3]
        0x000006ae:    7125        %q      STRB     r5,[r4,#4]
        0x000006b0:    7325        %s      STRB     r5,[r4,#0xc]
        0x000006b2:    7365        es      STRB     r5,[r4,#0xd]
        0x000006b4:    7067        gp      STRB     r7,[r4,#1]
        0x000006b6:    2001        .       MOVS     r0,#1
        0x000006b8:    4910        .I      LDR      r1,[pc,#64] ; [0x6fc] = 0x50004040
        0x000006ba:    70a5        .p      STRB     r5,[r4,#2]
        0x000006bc:    03c0        ..      LSLS     r0,r0,#15
        0x000006be:    6208        .b      STR      r0,[r1,#0x20]
        0x000006c0:    bdf8        ..      POP      {r3-r7,pc}
        0x000006c2:    7327        's      STRB     r7,[r4,#0xc]
        0x000006c4:    2002        .       MOVS     r0,#2
        0x000006c6:    7220         r      STRB     r0,[r4,#8]
        0x000006c8:    2005        .       MOVS     r0,#5
        0x000006ca:    f000f9b9    ....    BL       NVIC_EnableIRQ ; 0xa40
        0x000006ce:    7065        ep      STRB     r5,[r4,#1]
        0x000006d0:    e7f1        ..      B        0x6b6 ; EINT1_IRQHandler + 82
        0x000006d2:    f001f889    ....    BL       clear_name_block ; 0x17e8
        0x000006d6:    7325        %s      STRB     r5,[r4,#0xc]
        0x000006d8:    2002        .       MOVS     r0,#2
        0x000006da:    7220         r      STRB     r0,[r4,#8]
        0x000006dc:    7267        gr      STRB     r7,[r4,#9]
        0x000006de:    70e0        .p      STRB     r0,[r4,#3]
        0x000006e0:    2003        .       MOVS     r0,#3
        0x000006e2:    7120         q      STRB     r0,[r4,#4]
        0x000006e4:    7167        gq      STRB     r7,[r4,#5]
        0x000006e6:    200f        .       MOVS     r0,#0xf
        0x000006e8:    71a0        .q      STRB     r0,[r4,#6]
        0x000006ea:    200b        .       MOVS     r0,#0xb
        0x000006ec:    7060        `p      STRB     r0,[r4,#1]
        0x000006ee:    e7e2        ..      B        0x6b6 ; EINT1_IRQHandler + 82
    $d
        0x000006f0:    200007fc    ...     DCD    536872956
        0x000006f4:    e000e180    ....    DCD    3758154112
        0x000006f8:    40010020     ..@    DCD    1073807392
        0x000006fc:    50004040    @@.P    DCD    1342193728
    $t
    i.GPAB_IRQHandler
    GPAB_IRQHandler
        0x00000700:    b530        0.      PUSH     {r4,r5,lr}
        0x00000702:    2404        .$      MOVS     r4,#4
        0x00000704:    2201        ."      MOVS     r2,#1
        0x00000706:    492c        ,I      LDR      r1,[pc,#176] ; [0x7b8] = 0xe000e180
        0x00000708:    2010        .       MOVS     r0,#0x10
        0x0000070a:    6008        .`      STR      r0,[r1,#0]
        0x0000070c:    492b        +I      LDR      r1,[pc,#172] ; [0x7bc] = 0x50004000
        0x0000070e:    6a08        .j      LDR      r0,[r1,#0x20]
        0x00000710:    4b2b        +K      LDR      r3,[pc,#172] ; [0x7c0] = 0x50004200
        0x00000712:    07c5        ..      LSLS     r5,r0,#31
        0x00000714:    482b        +H      LDR      r0,[pc,#172] ; [0x7c4] = 0x200007fc
        0x00000716:    d014        ..      BEQ      0x742 ; GPAB_IRQHandler + 66
        0x00000718:    601a        .`      STR      r2,[r3,#0]
        0x0000071a:    6a0c        .j      LDR      r4,[r1,#0x20]
        0x0000071c:    4314        .C      ORRS     r4,r4,r2
        0x0000071e:    620c        .b      STR      r4,[r1,#0x20]
        0x00000720:    68dc        .h      LDR      r4,[r3,#0xc]
        0x00000722:    2c00        .,      CMP      r4,#0
        0x00000724:    d102        ..      BNE      0x72c ; GPAB_IRQHandler + 44
        0x00000726:    2403        .$      MOVS     r4,#3
        0x00000728:    7544        Du      STRB     r4,[r0,#0x15]
        0x0000072a:    60da        .`      STR      r2,[r3,#0xc]
        0x0000072c:    691c        .i      LDR      r4,[r3,#0x10]
        0x0000072e:    2c00        .,      CMP      r4,#0
        0x00000730:    d102        ..      BNE      0x738 ; GPAB_IRQHandler + 56
        0x00000732:    2406        .$      MOVS     r4,#6
        0x00000734:    7544        Du      STRB     r4,[r0,#0x15]
        0x00000736:    611a        .a      STR      r2,[r3,#0x10]
        0x00000738:    695c        \i      LDR      r4,[r3,#0x14]
        0x0000073a:    2c00        .,      CMP      r4,#0
        0x0000073c:    d130        0.      BNE      0x7a0 ; GPAB_IRQHandler + 160
        0x0000073e:    2409        .$      MOVS     r4,#9
        0x00000740:    e02c        ,.      B        0x79c ; GPAB_IRQHandler + 156
        0x00000742:    6a0d        .j      LDR      r5,[r1,#0x20]
        0x00000744:    07ad        ..      LSLS     r5,r5,#30
        0x00000746:    d514        ..      BPL      0x772 ; GPAB_IRQHandler + 114
        0x00000748:    605a        Z`      STR      r2,[r3,#4]
        0x0000074a:    6a0d        .j      LDR      r5,[r1,#0x20]
        0x0000074c:    2402        .$      MOVS     r4,#2
        0x0000074e:    4325        %C      ORRS     r5,r5,r4
        0x00000750:    620d        .b      STR      r5,[r1,#0x20]
        0x00000752:    68dd        .h      LDR      r5,[r3,#0xc]
        0x00000754:    2d00        .-      CMP      r5,#0
        0x00000756:    d101        ..      BNE      0x75c ; GPAB_IRQHandler + 92
        0x00000758:    7544        Du      STRB     r4,[r0,#0x15]
        0x0000075a:    60da        .`      STR      r2,[r3,#0xc]
        0x0000075c:    691c        .i      LDR      r4,[r3,#0x10]
        0x0000075e:    2c00        .,      CMP      r4,#0
        0x00000760:    d102        ..      BNE      0x768 ; GPAB_IRQHandler + 104
        0x00000762:    2405        .$      MOVS     r4,#5
        0x00000764:    7544        Du      STRB     r4,[r0,#0x15]
        0x00000766:    611a        .a      STR      r2,[r3,#0x10]
        0x00000768:    695c        \i      LDR      r4,[r3,#0x14]
        0x0000076a:    2c00        .,      CMP      r4,#0
        0x0000076c:    d118        ..      BNE      0x7a0 ; GPAB_IRQHandler + 160
        0x0000076e:    2408        .$      MOVS     r4,#8
        0x00000770:    e014        ..      B        0x79c ; GPAB_IRQHandler + 156
        0x00000772:    6a0d        .j      LDR      r5,[r1,#0x20]
        0x00000774:    076d        m.      LSLS     r5,r5,#29
        0x00000776:    d513        ..      BPL      0x7a0 ; GPAB_IRQHandler + 160
        0x00000778:    609a        .`      STR      r2,[r3,#8]
        0x0000077a:    6a0d        .j      LDR      r5,[r1,#0x20]
        0x0000077c:    4325        %C      ORRS     r5,r5,r4
        0x0000077e:    620d        .b      STR      r5,[r1,#0x20]
        0x00000780:    68dd        .h      LDR      r5,[r3,#0xc]
        0x00000782:    2d00        .-      CMP      r5,#0
        0x00000784:    d101        ..      BNE      0x78a ; GPAB_IRQHandler + 138
        0x00000786:    7542        Bu      STRB     r2,[r0,#0x15]
        0x00000788:    60da        .`      STR      r2,[r3,#0xc]
        0x0000078a:    691d        .i      LDR      r5,[r3,#0x10]
        0x0000078c:    2d00        .-      CMP      r5,#0
        0x0000078e:    d101        ..      BNE      0x794 ; GPAB_IRQHandler + 148
        0x00000790:    7544        Du      STRB     r4,[r0,#0x15]
        0x00000792:    611a        .a      STR      r2,[r3,#0x10]
        0x00000794:    695c        \i      LDR      r4,[r3,#0x14]
        0x00000796:    2c00        .,      CMP      r4,#0
        0x00000798:    d102        ..      BNE      0x7a0 ; GPAB_IRQHandler + 160
        0x0000079a:    2407        .$      MOVS     r4,#7
        0x0000079c:    7544        Du      STRB     r4,[r0,#0x15]
        0x0000079e:    615a        Za      STR      r2,[r3,#0x14]
        0x000007a0:    7dc2        .}      LDRB     r2,[r0,#0x17]
        0x000007a2:    2a00        .*      CMP      r2,#0
        0x000007a4:    d104        ..      BNE      0x7b0 ; GPAB_IRQHandler + 176
        0x000007a6:    7d42        B}      LDRB     r2,[r0,#0x15]
        0x000007a8:    2a00        .*      CMP      r2,#0
        0x000007aa:    d001        ..      BEQ      0x7b0 ; GPAB_IRQHandler + 176
        0x000007ac:    7d42        B}      LDRB     r2,[r0,#0x15]
        0x000007ae:    75c2        .u      STRB     r2,[r0,#0x17]
        0x000007b0:    6a08        .j      LDR      r0,[r1,#0x20]
        0x000007b2:    6208        .b      STR      r0,[r1,#0x20]
        0x000007b4:    bd30        0.      POP      {r4,r5,pc}
    $d
        0x000007b6:    0000        ..      DCW    0
        0x000007b8:    e000e180    ....    DCD    3758154112
        0x000007bc:    50004000    .@.P    DCD    1342193664
        0x000007c0:    50004200    .B.P    DCD    1342194176
        0x000007c4:    200007fc    ...     DCD    536872956
    $t
    i.GPCDEF_IRQHandler
    GPCDEF_IRQHandler
        0x000007c8:    4812        .H      LDR      r0,[pc,#72] ; [0x814] = 0x200007fc
        0x000007ca:    6a01        .j      LDR      r1,[r0,#0x20]
        0x000007cc:    2900        .)      CMP      r1,#0
        0x000007ce:    d106        ..      BNE      0x7de ; GPCDEF_IRQHandler + 22
        0x000007d0:    6981        .i      LDR      r1,[r0,#0x18]
        0x000007d2:    6201        .b      STR      r1,[r0,#0x20]
        0x000007d4:    4910        .I      LDR      r1,[pc,#64] ; [0x818] = 0x40010020
        0x000007d6:    680a        .h      LDR      r2,[r1,#0]
        0x000007d8:    064b        K.      LSLS     r3,r1,#25
        0x000007da:    431a        .C      ORRS     r2,r2,r3
        0x000007dc:    600a        .`      STR      r2,[r1,#0]
        0x000007de:    7c41        A|      LDRB     r1,[r0,#0x11]
        0x000007e0:    2900        .)      CMP      r1,#0
        0x000007e2:    d015        ..      BEQ      0x810 ; GPCDEF_IRQHandler + 72
        0x000007e4:    2100        .!      MOVS     r1,#0
        0x000007e6:    7441        At      STRB     r1,[r0,#0x11]
        0x000007e8:    7c41        A|      LDRB     r1,[r0,#0x11]
        0x000007ea:    4a0c        .J      LDR      r2,[pc,#48] ; [0x81c] = 0x20001240
        0x000007ec:    7c03        .|      LDRB     r3,[r0,#0x10]
        0x000007ee:    54d1        .T      STRB     r1,[r2,r3]
        0x000007f0:    6981        .i      LDR      r1,[r0,#0x18]
        0x000007f2:    6a02        .j      LDR      r2,[r0,#0x20]
        0x000007f4:    1a89        ..      SUBS     r1,r1,r2
        0x000007f6:    7c02        .|      LDRB     r2,[r0,#0x10]
        0x000007f8:    4b09        .K      LDR      r3,[pc,#36] ; [0x820] = 0x20000e40
        0x000007fa:    0092        ..      LSLS     r2,r2,#2
        0x000007fc:    5099        .P      STR      r1,[r3,r2]
        0x000007fe:    7c01        .|      LDRB     r1,[r0,#0x10]
        0x00000800:    1c49        I.      ADDS     r1,r1,#1
        0x00000802:    7401        .t      STRB     r1,[r0,#0x10]
        0x00000804:    2100        .!      MOVS     r1,#0
        0x00000806:    7481        .t      STRB     r1,[r0,#0x12]
        0x00000808:    4806        .H      LDR      r0,[pc,#24] ; [0x824] = 0x50004080
        0x0000080a:    6a01        .j      LDR      r1,[r0,#0x20]
        0x0000080c:    6201        .b      STR      r1,[r0,#0x20]
        0x0000080e:    4770        pG      BX       lr
        0x00000810:    2101        .!      MOVS     r1,#1
        0x00000812:    e7e8        ..      B        0x7e6 ; GPCDEF_IRQHandler + 30
    $d
        0x00000814:    200007fc    ...     DCD    536872956
        0x00000818:    40010020     ..@    DCD    1073807392
        0x0000081c:    20001240    @..     DCD    536875584
        0x00000820:    20000e40    @..     DCD    536874560
        0x00000824:    50004080    .@.P    DCD    1342193792
    $t
    i.GPIO_EnableInt
    GPIO_EnableInt
        0x00000828:    b510        ..      PUSH     {r4,lr}
        0x0000082a:    6983        .i      LDR      r3,[r0,#0x18]
        0x0000082c:    0e14        ..      LSRS     r4,r2,#24
        0x0000082e:    408c        .@      LSLS     r4,r4,r1
        0x00000830:    4323        #C      ORRS     r3,r3,r4
        0x00000832:    6183        .a      STR      r3,[r0,#0x18]
        0x00000834:    69c3        .i      LDR      r3,[r0,#0x1c]
        0x00000836:    0212        ..      LSLS     r2,r2,#8
        0x00000838:    0a12        ..      LSRS     r2,r2,#8
        0x0000083a:    408a        .@      LSLS     r2,r2,r1
        0x0000083c:    4313        .C      ORRS     r3,r3,r2
        0x0000083e:    61c3        .a      STR      r3,[r0,#0x1c]
        0x00000840:    bd10        ..      POP      {r4,pc}
    i.GPIO_SetMode
    GPIO_SetMode
        0x00000842:    b5f0        ..      PUSH     {r4-r7,lr}
        0x00000844:    2300        .#      MOVS     r3,#0
        0x00000846:    2701        .'      MOVS     r7,#1
        0x00000848:    463c        <F      MOV      r4,r7
        0x0000084a:    409c        .@      LSLS     r4,r4,r3
        0x0000084c:    420c        .B      TST      r4,r1
        0x0000084e:    d008        ..      BEQ      0x862 ; GPIO_SetMode + 32
        0x00000850:    6805        .h      LDR      r5,[r0,#0]
        0x00000852:    005c        \.      LSLS     r4,r3,#1
        0x00000854:    2603        .&      MOVS     r6,#3
        0x00000856:    40a6        .@      LSLS     r6,r6,r4
        0x00000858:    43b5        .C      BICS     r5,r5,r6
        0x0000085a:    4616        .F      MOV      r6,r2
        0x0000085c:    40a6        .@      LSLS     r6,r6,r4
        0x0000085e:    4335        5C      ORRS     r5,r5,r6
        0x00000860:    6005        .`      STR      r5,[r0,#0]
        0x00000862:    1c5b        [.      ADDS     r3,r3,#1
        0x00000864:    2b10        .+      CMP      r3,#0x10
        0x00000866:    d3ef        ..      BCC      0x848 ; GPIO_SetMode + 6
        0x00000868:    bdf0        ..      POP      {r4-r7,pc}
        0x0000086a:    0000        ..      MOVS     r0,r0
    i.Init_EXTINT
    Init_EXTINT
        0x0000086c:    b570        p.      PUSH     {r4-r6,lr}
        0x0000086e:    2501        .%      MOVS     r5,#1
        0x00000870:    4c0a        .L      LDR      r4,[pc,#40] ; [0x89c] = 0x50004040
        0x00000872:    03ed        ..      LSLS     r5,r5,#15
        0x00000874:    2200        ."      MOVS     r2,#0
        0x00000876:    4629        )F      MOV      r1,r5
        0x00000878:    4620         F      MOV      r0,r4
        0x0000087a:    f7ffffe2    ....    BL       GPIO_SetMode ; 0x842
        0x0000087e:    006a        j.      LSLS     r2,r5,#1
        0x00000880:    210f        .!      MOVS     r1,#0xf
        0x00000882:    4620         F      MOV      r0,r4
        0x00000884:    f7ffffd0    ....    BL       GPIO_EnableInt ; 0x828
        0x00000888:    2003        .       MOVS     r0,#3
        0x0000088a:    f000f8d9    ....    BL       NVIC_EnableIRQ ; 0xa40
        0x0000088e:    4904        .I      LDR      r1,[pc,#16] ; [0x8a0] = 0x50004180
        0x00000890:    2036        6       MOVS     r0,#0x36
        0x00000892:    6008        .`      STR      r0,[r1,#0]
        0x00000894:    6962        bi      LDR      r2,[r4,#0x14]
        0x00000896:    432a        *C      ORRS     r2,r2,r5
        0x00000898:    6162        ba      STR      r2,[r4,#0x14]
        0x0000089a:    bd70        p.      POP      {r4-r6,pc}
    $d
        0x0000089c:    50004040    @@.P    DCD    1342193728
        0x000008a0:    50004180    .A.P    DCD    1342194048
    $t
    i.Init_Keypad_Capturer
    Init_Keypad_Capturer
        0x000008a4:    b570        p.      PUSH     {r4-r6,lr}
        0x000008a6:    4c12        .L      LDR      r4,[pc,#72] ; [0x8f0] = 0x50004000
        0x000008a8:    2203        ."      MOVS     r2,#3
        0x000008aa:    213f        ?!      MOVS     r1,#0x3f
        0x000008ac:    4620         F      MOV      r0,r4
        0x000008ae:    f7ffffc8    ....    BL       GPIO_SetMode ; 0x842
        0x000008b2:    4d10        .M      LDR      r5,[pc,#64] ; [0x8f4] = 0x1000001
        0x000008b4:    2100        .!      MOVS     r1,#0
        0x000008b6:    462a        *F      MOV      r2,r5
        0x000008b8:    4620         F      MOV      r0,r4
        0x000008ba:    f7ffffb5    ....    BL       GPIO_EnableInt ; 0x828
        0x000008be:    462a        *F      MOV      r2,r5
        0x000008c0:    2101        .!      MOVS     r1,#1
        0x000008c2:    4620         F      MOV      r0,r4
        0x000008c4:    f7ffffb0    ....    BL       GPIO_EnableInt ; 0x828
        0x000008c8:    462a        *F      MOV      r2,r5
        0x000008ca:    2102        .!      MOVS     r1,#2
        0x000008cc:    4620         F      MOV      r0,r4
        0x000008ce:    f7ffffab    ....    BL       GPIO_EnableInt ; 0x828
        0x000008d2:    2004        .       MOVS     r0,#4
        0x000008d4:    f000f8b4    ....    BL       NVIC_EnableIRQ ; 0xa40
        0x000008d8:    2103        .!      MOVS     r1,#3
        0x000008da:    2004        .       MOVS     r0,#4
        0x000008dc:    f000f8ba    ....    BL       NVIC_SetPriority ; 0xa54
        0x000008e0:    4805        .H      LDR      r0,[pc,#20] ; [0x8f8] = 0x50004180
        0x000008e2:    2138        8!      MOVS     r1,#0x38
        0x000008e4:    6001        .`      STR      r1,[r0,#0]
        0x000008e6:    6961        ai      LDR      r1,[r4,#0x14]
        0x000008e8:    2007        .       MOVS     r0,#7
        0x000008ea:    4301        .C      ORRS     r1,r1,r0
        0x000008ec:    6161        aa      STR      r1,[r4,#0x14]
        0x000008ee:    bd70        p.      POP      {r4-r6,pc}
    $d
        0x000008f0:    50004000    .@.P    DCD    1342193664
        0x000008f4:    01000001    ....    DCD    16777217
        0x000008f8:    50004180    .A.P    DCD    1342194048
    $t
    i.Init_Signal_Capturer
    Init_Signal_Capturer
        0x000008fc:    b510        ..      PUSH     {r4,lr}
        0x000008fe:    4c08        .L      LDR      r4,[pc,#32] ; [0x920] = 0x50004080
        0x00000900:    2203        ."      MOVS     r2,#3
        0x00000902:    2101        .!      MOVS     r1,#1
        0x00000904:    4620         F      MOV      r0,r4
        0x00000906:    f7ffff9c    ....    BL       GPIO_SetMode ; 0x842
        0x0000090a:    4a06        .J      LDR      r2,[pc,#24] ; [0x924] = 0x10001
        0x0000090c:    2100        .!      MOVS     r1,#0
        0x0000090e:    4620         F      MOV      r0,r4
        0x00000910:    f7ffff8a    ....    BL       GPIO_EnableInt ; 0x828
        0x00000914:    2103        .!      MOVS     r1,#3
        0x00000916:    2005        .       MOVS     r0,#5
        0x00000918:    f000f89c    ....    BL       NVIC_SetPriority ; 0xa54
        0x0000091c:    bd10        ..      POP      {r4,pc}
    $d
        0x0000091e:    0000        ..      DCW    0
        0x00000920:    50004080    .@.P    DCD    1342193792
        0x00000924:    00010001    ....    DCD    65537
    $t
    i.Init_Timer0
    Init_Timer0
        0x00000928:    b510        ..      PUSH     {r4,lr}
        0x0000092a:    4c0a        .L      LDR      r4,[pc,#40] ; [0x954] = 0x40010000
        0x0000092c:    2101        .!      MOVS     r1,#1
        0x0000092e:    4a08        .J      LDR      r2,[pc,#32] ; [0x950] = 0x186a0
        0x00000930:    06c9        ..      LSLS     r1,r1,#27
        0x00000932:    4620         F      MOV      r0,r4
        0x00000934:    f000fb80    ....    BL       TIMER_Open ; 0x1038
        0x00000938:    6820         h      LDR      r0,[r4,#0]
        0x0000093a:    0361        a.      LSLS     r1,r4,#13
        0x0000093c:    4308        .C      ORRS     r0,r0,r1
        0x0000093e:    6020         `      STR      r0,[r4,#0]
        0x00000940:    2008        .       MOVS     r0,#8
        0x00000942:    f000f87d    ..}.    BL       NVIC_EnableIRQ ; 0xa40
        0x00000946:    6820         h      LDR      r0,[r4,#0]
        0x00000948:    03a1        ..      LSLS     r1,r4,#14
        0x0000094a:    4308        .C      ORRS     r0,r0,r1
        0x0000094c:    6020         `      STR      r0,[r4,#0]
        0x0000094e:    bd10        ..      POP      {r4,pc}
    $d
        0x00000950:    000186a0    ....    DCD    100000
        0x00000954:    40010000    ...@    DCD    1073807360
    $t
    i.Init_Timer1
    Init_Timer1
        0x00000958:    b510        ..      PUSH     {r4,lr}
        0x0000095a:    4c08        .L      LDR      r4,[pc,#32] ; [0x97c] = 0x40010020
        0x0000095c:    227d        }"      MOVS     r2,#0x7d
        0x0000095e:    2101        .!      MOVS     r1,#1
        0x00000960:    00d2        ..      LSLS     r2,r2,#3
        0x00000962:    06c9        ..      LSLS     r1,r1,#27
        0x00000964:    4620         F      MOV      r0,r4
        0x00000966:    f000fb67    ..g.    BL       TIMER_Open ; 0x1038
        0x0000096a:    6821        !h      LDR      r1,[r4,#0]
        0x0000096c:    0622        ".      LSLS     r2,r4,#24
        0x0000096e:    4311        .C      ORRS     r1,r1,r2
        0x00000970:    6021        !`      STR      r1,[r4,#0]
        0x00000972:    2009        .       MOVS     r0,#9
        0x00000974:    f000f864    ..d.    BL       NVIC_EnableIRQ ; 0xa40
        0x00000978:    bd10        ..      POP      {r4,pc}
    $d
        0x0000097a:    0000        ..      DCW    0
        0x0000097c:    40010020     ..@    DCD    1073807392
    $t
    i.Init_Timer2
    Init_Timer2
        0x00000980:    b510        ..      PUSH     {r4,lr}
        0x00000982:    4c09        .L      LDR      r4,[pc,#36] ; [0x9a8] = 0x40110000
        0x00000984:    2101        .!      MOVS     r1,#1
        0x00000986:    22c8        ."      MOVS     r2,#0xc8
        0x00000988:    06c9        ..      LSLS     r1,r1,#27
        0x0000098a:    4620         F      MOV      r0,r4
        0x0000098c:    f000fb54    ..T.    BL       TIMER_Open ; 0x1038
        0x00000990:    6820         h      LDR      r0,[r4,#0]
        0x00000992:    0361        a.      LSLS     r1,r4,#13
        0x00000994:    4308        .C      ORRS     r0,r0,r1
        0x00000996:    6020         `      STR      r0,[r4,#0]
        0x00000998:    200a        .       MOVS     r0,#0xa
        0x0000099a:    f000f851    ..Q.    BL       NVIC_EnableIRQ ; 0xa40
        0x0000099e:    6820         h      LDR      r0,[r4,#0]
        0x000009a0:    03a1        ..      LSLS     r1,r4,#14
        0x000009a2:    4308        .C      ORRS     r0,r0,r1
        0x000009a4:    6020         `      STR      r0,[r4,#0]
        0x000009a6:    bd10        ..      POP      {r4,pc}
    $d
        0x000009a8:    40110000    ...@    DCD    1074855936
    $t
    i.IrDA_NEC_TxRx_Init
    IrDA_NEC_TxRx_Init
        0x000009ac:    b510        ..      PUSH     {r4,lr}
        0x000009ae:    4c17        .L      LDR      r4,[pc,#92] ; [0xa0c] = 0x40040000
        0x000009b0:    2332        2#      MOVS     r3,#0x32
        0x000009b2:    4a15        .J      LDR      r2,[pc,#84] ; [0xa08] = 0x9470
        0x000009b4:    2100        .!      MOVS     r1,#0
        0x000009b6:    4620         F      MOV      r0,r4
        0x000009b8:    f000f86e    ..n.    BL       PWM_ConfigOutputChannel ; 0xa98
        0x000009bc:    6860        `h      LDR      r0,[r4,#4]
        0x000009be:    08c0        ..      LSRS     r0,r0,#3
        0x000009c0:    00c0        ..      LSLS     r0,r0,#3
        0x000009c2:    1d00        ..      ADDS     r0,r0,#4
        0x000009c4:    6060        ``      STR      r0,[r4,#4]
        0x000009c6:    6860        `h      LDR      r0,[r4,#4]
        0x000009c8:    2170        p!      MOVS     r1,#0x70
        0x000009ca:    4388        .C      BICS     r0,r0,r1
        0x000009cc:    3010        .0      ADDS     r0,r0,#0x10
        0x000009ce:    6060        ``      STR      r0,[r4,#4]
        0x000009d0:    6820         h      LDR      r0,[r4,#0]
        0x000009d2:    0a00        ..      LSRS     r0,r0,#8
        0x000009d4:    0200        ..      LSLS     r0,r0,#8
        0x000009d6:    1c80        ..      ADDS     r0,r0,#2
        0x000009d8:    6020         `      STR      r0,[r4,#0]
        0x000009da:    480d        .H      LDR      r0,[pc,#52] ; [0xa10] = 0xffff
        0x000009dc:    61a0        .a      STR      r0,[r4,#0x18]
        0x000009de:    2069        i       MOVS     r0,#0x69
        0x000009e0:    60e0        .`      STR      r0,[r4,#0xc]
        0x000009e2:    2034        4       MOVS     r0,#0x34
        0x000009e4:    6120         a      STR      r0,[r4,#0x10]
        0x000009e6:    2102        .!      MOVS     r1,#2
        0x000009e8:    4620         F      MOV      r0,r4
        0x000009ea:    f000f907    ....    BL       PWM_EnableCapture ; 0xbfc
        0x000009ee:    2204        ."      MOVS     r2,#4
        0x000009f0:    2101        .!      MOVS     r1,#1
        0x000009f2:    4620         F      MOV      r0,r4
        0x000009f4:    f000f922    ..".    BL       PWM_EnableCaptureInt ; 0xc3c
        0x000009f8:    4906        .I      LDR      r1,[pc,#24] ; [0xa14] = 0xe000e100
        0x000009fa:    2040        @       MOVS     r0,#0x40
        0x000009fc:    6008        .`      STR      r0,[r1,#0]
        0x000009fe:    2103        .!      MOVS     r1,#3
        0x00000a00:    4620         F      MOV      r0,r4
        0x00000a02:    f000f92d    ..-.    BL       PWM_Start ; 0xc60
        0x00000a06:    bd10        ..      POP      {r4,pc}
    $d
        0x00000a08:    00009470    p...    DCD    38000
        0x00000a0c:    40040000    ...@    DCD    1074003968
        0x00000a10:    0000ffff    ....    DCD    65535
        0x00000a14:    e000e100    ....    DCD    3758153984
    $t
    i.Mark
    Mark
        0x00000a18:    b570        p.      PUSH     {r4-r6,lr}
        0x00000a1a:    4d08        .M      LDR      r5,[pc,#32] ; [0xa3c] = 0x40040000
        0x00000a1c:    4604        .F      MOV      r4,r0
        0x00000a1e:    2101        .!      MOVS     r1,#1
        0x00000a20:    4628        (F      MOV      r0,r5
        0x00000a22:    f000f919    ....    BL       PWM_EnableOutput ; 0xc58
        0x00000a26:    2023        #       MOVS     r0,#0x23
        0x00000a28:    0100        ..      LSLS     r0,r0,#4
        0x00000a2a:    4360        `C      MULS     r0,r4,r0
        0x00000a2c:    f7fffdf2    ....    BL       CLK_SysTickDelay ; 0x614
        0x00000a30:    2101        .!      MOVS     r1,#1
        0x00000a32:    4628        (F      MOV      r0,r5
        0x00000a34:    f000f8de    ....    BL       PWM_DisableOutput ; 0xbf4
        0x00000a38:    bd70        p.      POP      {r4-r6,pc}
    $d
        0x00000a3a:    0000        ..      DCW    0
        0x00000a3c:    40040000    ...@    DCD    1074003968
    $t
    i.NVIC_EnableIRQ
    NVIC_EnableIRQ
        0x00000a40:    06c1        ..      LSLS     r1,r0,#27
        0x00000a42:    0ec9        ..      LSRS     r1,r1,#27
        0x00000a44:    2001        .       MOVS     r0,#1
        0x00000a46:    4088        .@      LSLS     r0,r0,r1
        0x00000a48:    4901        .I      LDR      r1,[pc,#4] ; [0xa50] = 0xe000e100
        0x00000a4a:    6008        .`      STR      r0,[r1,#0]
        0x00000a4c:    4770        pG      BX       lr
    $d
        0x00000a4e:    0000        ..      DCW    0
        0x00000a50:    e000e100    ....    DCD    3758153984
    $t
    i.NVIC_SetPriority
    NVIC_SetPriority
        0x00000a54:    0783        ..      LSLS     r3,r0,#30
        0x00000a56:    22ff        ."      MOVS     r2,#0xff
        0x00000a58:    0edb        ..      LSRS     r3,r3,#27
        0x00000a5a:    409a        .@      LSLS     r2,r2,r3
        0x00000a5c:    0789        ..      LSLS     r1,r1,#30
        0x00000a5e:    0e09        ..      LSRS     r1,r1,#24
        0x00000a60:    4099        .@      LSLS     r1,r1,r3
        0x00000a62:    2800        .(      CMP      r0,#0
        0x00000a64:    da0b        ..      BGE      0xa7e ; NVIC_SetPriority + 42
        0x00000a66:    0700        ..      LSLS     r0,r0,#28
        0x00000a68:    0f00        ..      LSRS     r0,r0,#28
        0x00000a6a:    3808        .8      SUBS     r0,r0,#8
        0x00000a6c:    0883        ..      LSRS     r3,r0,#2
        0x00000a6e:    4808        .H      LDR      r0,[pc,#32] ; [0xa90] = 0xe000ed00
        0x00000a70:    009b        ..      LSLS     r3,r3,#2
        0x00000a72:    1818        ..      ADDS     r0,r3,r0
        0x00000a74:    69c3        .i      LDR      r3,[r0,#0x1c]
        0x00000a76:    4393        .C      BICS     r3,r3,r2
        0x00000a78:    430b        .C      ORRS     r3,r3,r1
        0x00000a7a:    61c3        .a      STR      r3,[r0,#0x1c]
        0x00000a7c:    4770        pG      BX       lr
        0x00000a7e:    0883        ..      LSRS     r3,r0,#2
        0x00000a80:    4804        .H      LDR      r0,[pc,#16] ; [0xa94] = 0xe000e400
        0x00000a82:    009b        ..      LSLS     r3,r3,#2
        0x00000a84:    1818        ..      ADDS     r0,r3,r0
        0x00000a86:    6803        .h      LDR      r3,[r0,#0]
        0x00000a88:    4393        .C      BICS     r3,r3,r2
        0x00000a8a:    430b        .C      ORRS     r3,r3,r1
        0x00000a8c:    6003        .`      STR      r3,[r0,#0]
        0x00000a8e:    4770        pG      BX       lr
    $d
        0x00000a90:    e000ed00    ....    DCD    3758157056
        0x00000a94:    e000e400    ....    DCD    3758154752
    $t
    i.PWM_ConfigOutputChannel
    PWM_ConfigOutputChannel
        0x00000a98:    b5ff        ..      PUSH     {r0-r7,lr}
        0x00000a9a:    b09d        ..      SUB      sp,sp,#0x74
        0x00000a9c:    460e        .F      MOV      r6,r1
        0x00000a9e:    4604        .F      MOV      r4,r0
        0x00000aa0:    2220         "      MOVS     r2,#0x20
        0x00000aa2:    494f        OI      LDR      r1,[pc,#316] ; [0xbe0] = 0x2108
        0x00000aa4:    a811        ..      ADD      r0,sp,#0x44
        0x00000aa6:    f7fffb51    ..Q.    BL       __aeabi_memcpy ; 0x14c
        0x00000aaa:    494d        MI      LDR      r1,[pc,#308] ; [0xbe0] = 0x2108
        0x00000aac:    2501        .%      MOVS     r5,#1
        0x00000aae:    27ff        .'      MOVS     r7,#0xff
        0x00000ab0:    2244        D"      MOVS     r2,#0x44
        0x00000ab2:    3120         1      ADDS     r1,r1,#0x20
        0x00000ab4:    4668        hF      MOV      r0,sp
        0x00000ab6:    f7fffb49    ..I.    BL       __aeabi_memcpy ; 0x14c
        0x00000aba:    484a        JH      LDR      r0,[pc,#296] ; [0xbe4] = 0xffff
        0x00000abc:    9019        ..      STR      r0,[sp,#0x64]
        0x00000abe:    484a        JH      LDR      r0,[pc,#296] ; [0xbe8] = 0x40040000
        0x00000ac0:    494a        JI      LDR      r1,[pc,#296] ; [0xbec] = 0x50000200
        0x00000ac2:    2204        ."      MOVS     r2,#4
        0x00000ac4:    4284        .B      CMP      r4,r0
        0x00000ac6:    d10c        ..      BNE      0xae2 ; PWM_ConfigOutputChannel + 74
        0x00000ac8:    69c8        .i      LDR      r0,[r1,#0x1c]
        0x00000aca:    2e02        ..      CMP      r6,#2
        0x00000acc:    d204        ..      BCS      0xad8 ; PWM_ConfigOutputChannel + 64
        0x00000ace:    0980        ..      LSRS     r0,r0,#6
        0x00000ad0:    6949        Ii      LDR      r1,[r1,#0x14]
        0x00000ad2:    4010        .@      ANDS     r0,r0,r2
        0x00000ad4:    0f09        ..      LSRS     r1,r1,#28
        0x00000ad6:    e00b        ..      B        0xaf0 ; PWM_ConfigOutputChannel + 88
        0x00000ad8:    09c0        ..      LSRS     r0,r0,#7
        0x00000ada:    6949        Ii      LDR      r1,[r1,#0x14]
        0x00000adc:    4010        .@      ANDS     r0,r0,r2
        0x00000ade:    0f89        ..      LSRS     r1,r1,#30
        0x00000ae0:    e00e        ..      B        0xb00 ; PWM_ConfigOutputChannel + 104
        0x00000ae2:    69c8        .i      LDR      r0,[r1,#0x1c]
        0x00000ae4:    2e02        ..      CMP      r6,#2
        0x00000ae6:    d206        ..      BCS      0xaf6 ; PWM_ConfigOutputChannel + 94
        0x00000ae8:    0a00        ..      LSRS     r0,r0,#8
        0x00000aea:    69c9        .i      LDR      r1,[r1,#0x1c]
        0x00000aec:    4010        .@      ANDS     r0,r0,r2
        0x00000aee:    0909        ..      LSRS     r1,r1,#4
        0x00000af0:    0789        ..      LSLS     r1,r1,#30
        0x00000af2:    0f89        ..      LSRS     r1,r1,#30
        0x00000af4:    e004        ..      B        0xb00 ; PWM_ConfigOutputChannel + 104
        0x00000af6:    0a40        @.      LSRS     r0,r0,#9
        0x00000af8:    69c9        .i      LDR      r1,[r1,#0x1c]
        0x00000afa:    4010        .@      ANDS     r0,r0,r2
        0x00000afc:    0609        ..      LSLS     r1,r1,#24
        0x00000afe:    0f89        ..      LSRS     r1,r1,#30
        0x00000b00:    4308        .C      ORRS     r0,r0,r1
        0x00000b02:    2802        .(      CMP      r0,#2
        0x00000b04:    d021        !.      BEQ      0xb4a ; PWM_ConfigOutputChannel + 178
        0x00000b06:    0080        ..      LSLS     r0,r0,#2
        0x00000b08:    a911        ..      ADD      r1,sp,#0x44
        0x00000b0a:    5808        .X      LDR      r0,[r1,r0]
        0x00000b0c:    901a        ..      STR      r0,[sp,#0x68]
        0x00000b0e:    991f        ..      LDR      r1,[sp,#0x7c]
        0x00000b10:    f7fffb06    ....    BL       __aeabi_uidiv ; 0x120
        0x00000b14:    901b        ..      STR      r0,[sp,#0x6c]
        0x00000b16:    4629        )F      MOV      r1,r5
        0x00000b18:    f7fffb02    ....    BL       __aeabi_uidiv ; 0x120
        0x00000b1c:    2101        .!      MOVS     r1,#1
        0x00000b1e:    0609        ..      LSLS     r1,r1,#24
        0x00000b20:    4288        .B      CMP      r0,r1
        0x00000b22:    d817        ..      BHI      0xb54 ; PWM_ConfigOutputChannel + 188
        0x00000b24:    492f        /I      LDR      r1,[pc,#188] ; [0xbe4] = 0xffff
        0x00000b26:    1841        A.      ADDS     r1,r0,r1
        0x00000b28:    0209        ..      LSLS     r1,r1,#8
        0x00000b2a:    0e0f        ..      LSRS     r7,r1,#24
        0x00000b2c:    2f03        ./      CMP      r7,#3
        0x00000b2e:    d200        ..      BCS      0xb32 ; PWM_ConfigOutputChannel + 154
        0x00000b30:    2702        .'      MOVS     r7,#2
        0x00000b32:    4639        9F      MOV      r1,r7
        0x00000b34:    f7fffaf4    ....    BL       __aeabi_uidiv ; 0x120
        0x00000b38:    2101        .!      MOVS     r1,#1
        0x00000b3a:    0409        ..      LSLS     r1,r1,#16
        0x00000b3c:    4288        .B      CMP      r0,r1
        0x00000b3e:    d809        ..      BHI      0xb54 ; PWM_ConfigOutputChannel + 188
        0x00000b40:    2801        .(      CMP      r0,#1
        0x00000b42:    d000        ..      BEQ      0xb46 ; PWM_ConfigOutputChannel + 174
        0x00000b44:    b280        ..      UXTH     r0,r0
        0x00000b46:    9019        ..      STR      r0,[sp,#0x64]
        0x00000b48:    e00a        ..      B        0xb60 ; PWM_ConfigOutputChannel + 200
        0x00000b4a:    f000f9f7    ....    BL       SystemCoreClockUpdate ; 0xf3c
        0x00000b4e:    4828        (H      LDR      r0,[pc,#160] ; [0xbf0] = 0x20000000
        0x00000b50:    6800        .h      LDR      r0,[r0,#0]
        0x00000b52:    e7db        ..      B        0xb0c ; PWM_ConfigOutputChannel + 116
        0x00000b54:    0668        h.      LSLS     r0,r5,#25
        0x00000b56:    0e05        ..      LSRS     r5,r0,#24
        0x00000b58:    2d11        .-      CMP      r5,#0x11
        0x00000b5a:    d201        ..      BCS      0xb60 ; PWM_ConfigOutputChannel + 200
        0x00000b5c:    981b        ..      LDR      r0,[sp,#0x6c]
        0x00000b5e:    e7da        ..      B        0xb16 ; PWM_ConfigOutputChannel + 126
        0x00000b60:    4639        9F      MOV      r1,r7
        0x00000b62:    9819        ..      LDR      r0,[sp,#0x64]
        0x00000b64:    4369        iC      MULS     r1,r5,r1
        0x00000b66:    4341        AC      MULS     r1,r0,r1
        0x00000b68:    981a        ..      LDR      r0,[sp,#0x68]
        0x00000b6a:    f7fffad9    ....    BL       __aeabi_uidiv ; 0x120
        0x00000b6e:    901a        ..      STR      r0,[sp,#0x68]
        0x00000b70:    1e7f        ..      SUBS     r7,r7,#1
        0x00000b72:    9819        ..      LDR      r0,[sp,#0x64]
        0x00000b74:    b2f9        ..      UXTB     r1,r7
        0x00000b76:    1e40        @.      SUBS     r0,r0,#1
        0x00000b78:    b287        ..      UXTH     r7,r0
        0x00000b7a:    00a8        ..      LSLS     r0,r5,#2
        0x00000b7c:    466a        jF      MOV      r2,sp
        0x00000b7e:    5c15        .\      LDRB     r5,[r2,r0]
        0x00000b80:    6822        "h      LDR      r2,[r4,#0]
        0x00000b82:    0870        p.      LSRS     r0,r6,#1
        0x00000b84:    4684        .F      MOV      r12,r0
        0x00000b86:    00c0        ..      LSLS     r0,r0,#3
        0x00000b88:    23ff        .#      MOVS     r3,#0xff
        0x00000b8a:    4083        .@      LSLS     r3,r3,r0
        0x00000b8c:    439a        .C      BICS     r2,r2,r3
        0x00000b8e:    4081        .@      LSLS     r1,r1,r0
        0x00000b90:    430a        .C      ORRS     r2,r2,r1
        0x00000b92:    6022        "`      STR      r2,[r4,#0]
        0x00000b94:    6861        ah      LDR      r1,[r4,#4]
        0x00000b96:    00b0        ..      LSLS     r0,r6,#2
        0x00000b98:    2207        ."      MOVS     r2,#7
        0x00000b9a:    4082        .@      LSLS     r2,r2,r0
        0x00000b9c:    4391        .C      BICS     r1,r1,r2
        0x00000b9e:    4085        .@      LSLS     r5,r5,r0
        0x00000ba0:    4329        )C      ORRS     r1,r1,r5
        0x00000ba2:    6061        a`      STR      r1,[r4,#4]
        0x00000ba4:    68a1        .h      LDR      r1,[r4,#8]
        0x00000ba6:    2201        ."      MOVS     r2,#1
        0x00000ba8:    4660        `F      MOV      r0,r12
        0x00000baa:    0792        ..      LSLS     r2,r2,#30
        0x00000bac:    4082        .@      LSLS     r2,r2,r0
        0x00000bae:    4391        .C      BICS     r1,r1,r2
        0x00000bb0:    60a1        .`      STR      r1,[r4,#8]
        0x00000bb2:    68a0        .h      LDR      r0,[r4,#8]
        0x00000bb4:    00f2        ..      LSLS     r2,r6,#3
        0x00000bb6:    2108        .!      MOVS     r1,#8
        0x00000bb8:    4091        .@      LSLS     r1,r1,r2
        0x00000bba:    4308        .C      ORRS     r0,r0,r1
        0x00000bbc:    60a0        .`      STR      r0,[r4,#8]
        0x00000bbe:    210c        .!      MOVS     r1,#0xc
        0x00000bc0:    434e        NC      MULS     r6,r1,r6
        0x00000bc2:    9820         .      LDR      r0,[sp,#0x80]
        0x00000bc4:    1934        4.      ADDS     r4,r6,r4
        0x00000bc6:    2800        .(      CMP      r0,#0
        0x00000bc8:    d005        ..      BEQ      0xbd6 ; PWM_ConfigOutputChannel + 318
        0x00000bca:    1c79        y.      ADDS     r1,r7,#1
        0x00000bcc:    4348        HC      MULS     r0,r1,r0
        0x00000bce:    2164        d!      MOVS     r1,#0x64
        0x00000bd0:    f7fffaa6    ....    BL       __aeabi_uidiv ; 0x120
        0x00000bd4:    1e40        @.      SUBS     r0,r0,#1
        0x00000bd6:    6120         a      STR      r0,[r4,#0x10]
        0x00000bd8:    60e7        .`      STR      r7,[r4,#0xc]
        0x00000bda:    981a        ..      LDR      r0,[sp,#0x68]
        0x00000bdc:    b021        !.      ADD      sp,sp,#0x84
        0x00000bde:    bdf0        ..      POP      {r4-r7,pc}
    $d
        0x00000be0:    00002108    .!..    DCD    8456
        0x00000be4:    0000ffff    ....    DCD    65535
        0x00000be8:    40040000    ...@    DCD    1074003968
        0x00000bec:    50000200    ...P    DCD    1342177792
        0x00000bf0:    20000000    ...     DCD    536870912
    $t
    i.PWM_DisableOutput
    PWM_DisableOutput
        0x00000bf4:    6fc2        .o      LDR      r2,[r0,#0x7c]
        0x00000bf6:    438a        .C      BICS     r2,r2,r1
        0x00000bf8:    67c2        .g      STR      r2,[r0,#0x7c]
        0x00000bfa:    4770        pG      BX       lr
    i.PWM_EnableCapture
    PWM_EnableCapture
        0x00000bfc:    b5f0        ..      PUSH     {r4-r7,lr}
        0x00000bfe:    2200        ."      MOVS     r2,#0
        0x00000c00:    2501        .%      MOVS     r5,#1
        0x00000c02:    2608        .&      MOVS     r6,#8
        0x00000c04:    462c        ,F      MOV      r4,r5
        0x00000c06:    4094        .@      LSLS     r4,r4,r2
        0x00000c08:    420c        .B      TST      r4,r1
        0x00000c0a:    d00f        ..      BEQ      0xc2c ; PWM_EnableCapture + 48
        0x00000c0c:    2a02        .*      CMP      r2,#2
        0x00000c0e:    d206        ..      BCS      0xc1e ; PWM_EnableCapture + 34
        0x00000c10:    6d04        .m      LDR      r4,[r0,#0x50]
        0x00000c12:    0117        ..      LSLS     r7,r2,#4
        0x00000c14:    4633        3F      MOV      r3,r6
        0x00000c16:    40bb        .@      LSLS     r3,r3,r7
        0x00000c18:    431c        .C      ORRS     r4,r4,r3
        0x00000c1a:    6504        .e      STR      r4,[r0,#0x50]
        0x00000c1c:    e006        ..      B        0xc2c ; PWM_EnableCapture + 48
        0x00000c1e:    0114        ..      LSLS     r4,r2,#4
        0x00000c20:    4633        3F      MOV      r3,r6
        0x00000c22:    3c20         <      SUBS     r4,r4,#0x20
        0x00000c24:    40a3        .@      LSLS     r3,r3,r4
        0x00000c26:    6d44        Dm      LDR      r4,[r0,#0x54]
        0x00000c28:    4323        #C      ORRS     r3,r3,r4
        0x00000c2a:    6543        Ce      STR      r3,[r0,#0x54]
        0x00000c2c:    1c52        R.      ADDS     r2,r2,#1
        0x00000c2e:    2a04        .*      CMP      r2,#4
        0x00000c30:    d3e8        ..      BCC      0xc04 ; PWM_EnableCapture + 8
        0x00000c32:    6f82        .o      LDR      r2,[r0,#0x78]
        0x00000c34:    430a        .C      ORRS     r2,r2,r1
        0x00000c36:    6782        .g      STR      r2,[r0,#0x78]
        0x00000c38:    63c5        .c      STR      r5,[r0,#0x3c]
        0x00000c3a:    bdf0        ..      POP      {r4-r7,pc}
    i.PWM_EnableCaptureInt
    PWM_EnableCaptureInt
        0x00000c3c:    010b        ..      LSLS     r3,r1,#4
        0x00000c3e:    2902        .)      CMP      r1,#2
        0x00000c40:    d204        ..      BCS      0xc4c ; PWM_EnableCaptureInt + 16
        0x00000c42:    6d01        .m      LDR      r1,[r0,#0x50]
        0x00000c44:    409a        .@      LSLS     r2,r2,r3
        0x00000c46:    4311        .C      ORRS     r1,r1,r2
        0x00000c48:    6501        .e      STR      r1,[r0,#0x50]
        0x00000c4a:    4770        pG      BX       lr
        0x00000c4c:    3b20         ;      SUBS     r3,r3,#0x20
        0x00000c4e:    6d41        Am      LDR      r1,[r0,#0x54]
        0x00000c50:    409a        .@      LSLS     r2,r2,r3
        0x00000c52:    430a        .C      ORRS     r2,r2,r1
        0x00000c54:    6542        Be      STR      r2,[r0,#0x54]
        0x00000c56:    4770        pG      BX       lr
    i.PWM_EnableOutput
    PWM_EnableOutput
        0x00000c58:    6fc2        .o      LDR      r2,[r0,#0x7c]
        0x00000c5a:    430a        .C      ORRS     r2,r2,r1
        0x00000c5c:    67c2        .g      STR      r2,[r0,#0x7c]
        0x00000c5e:    4770        pG      BX       lr
    i.PWM_Start
    PWM_Start
        0x00000c60:    b570        p.      PUSH     {r4-r6,lr}
        0x00000c62:    2300        .#      MOVS     r3,#0
        0x00000c64:    461a        .F      MOV      r2,r3
        0x00000c66:    2601        .&      MOVS     r6,#1
        0x00000c68:    4635        5F      MOV      r5,r6
        0x00000c6a:    4095        .@      LSLS     r5,r5,r2
        0x00000c6c:    4634        4F      MOV      r4,r6
        0x00000c6e:    420d        .B      TST      r5,r1
        0x00000c70:    d002        ..      BEQ      0xc78 ; PWM_Start + 24
        0x00000c72:    00d5        ..      LSLS     r5,r2,#3
        0x00000c74:    40ac        .@      LSLS     r4,r4,r5
        0x00000c76:    4323        #C      ORRS     r3,r3,r4
        0x00000c78:    1c52        R.      ADDS     r2,r2,#1
        0x00000c7a:    2a04        .*      CMP      r2,#4
        0x00000c7c:    d3f4        ..      BCC      0xc68 ; PWM_Start + 8
        0x00000c7e:    6881        .h      LDR      r1,[r0,#8]
        0x00000c80:    4319        .C      ORRS     r1,r1,r3
        0x00000c82:    6081        .`      STR      r1,[r0,#8]
        0x00000c84:    bd70        p.      POP      {r4-r6,pc}
    i.SPACE
    SPACE
        0x00000c86:    2123        #!      MOVS     r1,#0x23
        0x00000c88:    b510        ..      PUSH     {r4,lr}
        0x00000c8a:    0109        ..      LSLS     r1,r1,#4
        0x00000c8c:    4348        HC      MULS     r0,r1,r0
        0x00000c8e:    f7fffcc1    ....    BL       CLK_SysTickDelay ; 0x614
        0x00000c92:    bd10        ..      POP      {r4,pc}
    i.SPI_DisableAutoSS
    SPI_DisableAutoSS
        0x00000c94:    6881        .h      LDR      r1,[r0,#8]
        0x00000c96:    220b        ."      MOVS     r2,#0xb
        0x00000c98:    4391        .C      BICS     r1,r1,r2
        0x00000c9a:    6081        .`      STR      r1,[r0,#8]
        0x00000c9c:    4770        pG      BX       lr
        0x00000c9e:    0000        ..      MOVS     r0,r0
    i.SPI_Open
    SPI_Open
        0x00000ca0:    b5f8        ..      PUSH     {r3-r7,lr}
        0x00000ca2:    460d        .F      MOV      r5,r1
        0x00000ca4:    4604        .F      MOV      r4,r0
        0x00000ca6:    2b20         +      CMP      r3,#0x20
        0x00000ca8:    d100        ..      BNE      0xcac ; SPI_Open + 12
        0x00000caa:    2300        .#      MOVS     r3,#0
        0x00000cac:    00d8        ..      LSLS     r0,r3,#3
        0x00000cae:    4328        (C      ORRS     r0,r0,r5
        0x00000cb0:    4310        .C      ORRS     r0,r0,r2
        0x00000cb2:    6020         `      STR      r0,[r4,#0]
        0x00000cb4:    6be0        .k      LDR      r0,[r4,#0x3c]
        0x00000cb6:    2101        .!      MOVS     r1,#1
        0x00000cb8:    07c9        ..      LSLS     r1,r1,#31
        0x00000cba:    4308        .C      ORRS     r0,r0,r1
        0x00000cbc:    63e0        .c      STR      r0,[r4,#0x3c]
        0x00000cbe:    f7fffbaf    ....    BL       CLK_GetHCLKFreq ; 0x420
        0x00000cc2:    2100        .!      MOVS     r1,#0
        0x00000cc4:    4a4d        MJ      LDR      r2,[pc,#308] ; [0xdfc] = 0x40030000
        0x00000cc6:    4e4e        NN      LDR      r6,[pc,#312] ; [0xe00] = 0x50000200
        0x00000cc8:    4607        .F      MOV      r7,r0
        0x00000cca:    2d00        .-      CMP      r5,#0
        0x00000ccc:    d005        ..      BEQ      0xcda ; SPI_Open + 58
        0x00000cce:    2010        .       MOVS     r0,#0x10
        0x00000cd0:    60a0        .`      STR      r0,[r4,#8]
        0x00000cd2:    4294        .B      CMP      r4,r2
        0x00000cd4:    d17d        }.      BNE      0xdd2 ; SPI_Open + 306
        0x00000cd6:    6972        ri      LDR      r2,[r6,#0x14]
        0x00000cd8:    e08b        ..      B        0xdf2 ; SPI_Open + 338
        0x00000cda:    2000        .       MOVS     r0,#0
        0x00000cdc:    60a0        .`      STR      r0,[r4,#8]
        0x00000cde:    4847        GH      LDR      r0,[pc,#284] ; [0xdfc] = 0x40030000
        0x00000ce0:    4284        .B      CMP      r4,r0
        0x00000ce2:    d102        ..      BNE      0xcea ; SPI_Open + 74
        0x00000ce4:    6970        pi      LDR      r0,[r6,#0x14]
        0x00000ce6:    06c0        ..      LSLS     r0,r0,#27
        0x00000ce8:    e004        ..      B        0xcf4 ; SPI_Open + 84
        0x00000cea:    4846        FH      LDR      r0,[pc,#280] ; [0xe04] = 0x40034000
        0x00000cec:    4284        .B      CMP      r4,r0
        0x00000cee:    d105        ..      BNE      0xcfc ; SPI_Open + 92
        0x00000cf0:    6970        pi      LDR      r0,[r6,#0x14]
        0x00000cf2:    0680        ..      LSLS     r0,r0,#26
        0x00000cf4:    2800        .(      CMP      r0,#0
        0x00000cf6:    da09        ..      BGE      0xd0c ; SPI_Open + 108
        0x00000cf8:    463d        =F      MOV      r5,r7
        0x00000cfa:    e00a        ..      B        0xd12 ; SPI_Open + 114
        0x00000cfc:    4842        BH      LDR      r0,[pc,#264] ; [0xe08] = 0x40130000
        0x00000cfe:    4284        .B      CMP      r4,r0
        0x00000d00:    6970        pi      LDR      r0,[r6,#0x14]
        0x00000d02:    d101        ..      BNE      0xd08 ; SPI_Open + 104
        0x00000d04:    0640        @.      LSLS     r0,r0,#25
        0x00000d06:    e7f5        ..      B        0xcf4 ; SPI_Open + 84
        0x00000d08:    0600        ..      LSLS     r0,r0,#24
        0x00000d0a:    e7f3        ..      B        0xcf4 ; SPI_Open + 84
        0x00000d0c:    f7fffb90    ....    BL       CLK_GetPLLClockFreq ; 0x430
        0x00000d10:    4605        .F      MOV      r5,r0
        0x00000d12:    9806        ..      LDR      r0,[sp,#0x18]
        0x00000d14:    42b8        .B      CMP      r0,r7
        0x00000d16:    d317        ..      BCC      0xd48 ; SPI_Open + 168
        0x00000d18:    4838        8H      LDR      r0,[pc,#224] ; [0xdfc] = 0x40030000
        0x00000d1a:    4284        .B      CMP      r4,r0
        0x00000d1c:    d102        ..      BNE      0xd24 ; SPI_Open + 132
        0x00000d1e:    6970        pi      LDR      r0,[r6,#0x14]
        0x00000d20:    2110        .!      MOVS     r1,#0x10
        0x00000d22:    e00c        ..      B        0xd3e ; SPI_Open + 158
        0x00000d24:    4837        7H      LDR      r0,[pc,#220] ; [0xe04] = 0x40034000
        0x00000d26:    4284        .B      CMP      r4,r0
        0x00000d28:    d102        ..      BNE      0xd30 ; SPI_Open + 144
        0x00000d2a:    6970        pi      LDR      r0,[r6,#0x14]
        0x00000d2c:    2120         !      MOVS     r1,#0x20
        0x00000d2e:    e006        ..      B        0xd3e ; SPI_Open + 158
        0x00000d30:    4835        5H      LDR      r0,[pc,#212] ; [0xe08] = 0x40130000
        0x00000d32:    4284        .B      CMP      r4,r0
        0x00000d34:    6970        pi      LDR      r0,[r6,#0x14]
        0x00000d36:    d101        ..      BNE      0xd3c ; SPI_Open + 156
        0x00000d38:    2140        @!      MOVS     r1,#0x40
        0x00000d3a:    e000        ..      B        0xd3e ; SPI_Open + 158
        0x00000d3c:    2180        .!      MOVS     r1,#0x80
        0x00000d3e:    4308        .C      ORRS     r0,r0,r1
        0x00000d40:    6170        pa      STR      r0,[r6,#0x14]
        0x00000d42:    2000        .       MOVS     r0,#0
        0x00000d44:    6060        ``      STR      r0,[r4,#4]
        0x00000d46:    e057        W.      B        0xdf8 ; SPI_Open + 344
        0x00000d48:    42a8        .B      CMP      r0,r5
        0x00000d4a:    d303        ..      BCC      0xd54 ; SPI_Open + 180
        0x00000d4c:    2000        .       MOVS     r0,#0
        0x00000d4e:    6060        ``      STR      r0,[r4,#4]
        0x00000d50:    4628        (F      MOV      r0,r5
        0x00000d52:    bdf8        ..      POP      {r3-r7,pc}
        0x00000d54:    2800        .(      CMP      r0,#0
        0x00000d56:    d029        ).      BEQ      0xdac ; SPI_Open + 268
        0x00000d58:    4628        (F      MOV      r0,r5
        0x00000d5a:    210a        .!      MOVS     r1,#0xa
        0x00000d5c:    4348        HC      MULS     r0,r1,r0
        0x00000d5e:    4606        .F      MOV      r6,r0
        0x00000d60:    9906        ..      LDR      r1,[sp,#0x18]
        0x00000d62:    f7fff9dd    ....    BL       __aeabi_uidiv ; 0x120
        0x00000d66:    210a        .!      MOVS     r1,#0xa
        0x00000d68:    1d40        @.      ADDS     r0,r0,#5
        0x00000d6a:    f7fff9d9    ....    BL       __aeabi_uidiv ; 0x120
        0x00000d6e:    1e40        @.      SUBS     r0,r0,#1
        0x00000d70:    28ff        .(      CMP      r0,#0xff
        0x00000d72:    d926        &.      BLS      0xdc2 ; SPI_Open + 290
        0x00000d74:    6be0        .k      LDR      r0,[r4,#0x3c]
        0x00000d76:    0040        @.      LSLS     r0,r0,#1
        0x00000d78:    0840        @.      LSRS     r0,r0,#1
        0x00000d7a:    63e0        .c      STR      r0,[r4,#0x3c]
        0x00000d7c:    9806        ..      LDR      r0,[sp,#0x18]
        0x00000d7e:    0041        A.      LSLS     r1,r0,#1
        0x00000d80:    4630        0F      MOV      r0,r6
        0x00000d82:    f7fff9cd    ....    BL       __aeabi_uidiv ; 0x120
        0x00000d86:    210a        .!      MOVS     r1,#0xa
        0x00000d88:    1d40        @.      ADDS     r0,r0,#5
        0x00000d8a:    f7fff9c9    ....    BL       __aeabi_uidiv ; 0x120
        0x00000d8e:    1e40        @.      SUBS     r0,r0,#1
        0x00000d90:    28ff        .(      CMP      r0,#0xff
        0x00000d92:    d900        ..      BLS      0xd96 ; SPI_Open + 246
        0x00000d94:    20ff        .       MOVS     r0,#0xff
        0x00000d96:    6861        ah      LDR      r1,[r4,#4]
        0x00000d98:    0a09        ..      LSRS     r1,r1,#8
        0x00000d9a:    0209        ..      LSLS     r1,r1,#8
        0x00000d9c:    4301        .C      ORRS     r1,r1,r0
        0x00000d9e:    6061        a`      STR      r1,[r4,#4]
        0x00000da0:    0041        A.      LSLS     r1,r0,#1
        0x00000da2:    4628        (F      MOV      r0,r5
        0x00000da4:    1c89        ..      ADDS     r1,r1,#2
        0x00000da6:    f7fff9bb    ....    BL       __aeabi_uidiv ; 0x120
        0x00000daa:    bdf8        ..      POP      {r3-r7,pc}
        0x00000dac:    6be0        .k      LDR      r0,[r4,#0x3c]
        0x00000dae:    0040        @.      LSLS     r0,r0,#1
        0x00000db0:    0840        @.      LSRS     r0,r0,#1
        0x00000db2:    63e0        .c      STR      r0,[r4,#0x3c]
        0x00000db4:    6860        `h      LDR      r0,[r4,#4]
        0x00000db6:    21ff        .!      MOVS     r1,#0xff
        0x00000db8:    4308        .C      ORRS     r0,r0,r1
        0x00000dba:    6060        ``      STR      r0,[r4,#4]
        0x00000dbc:    0a68        h.      LSRS     r0,r5,#9
        0x00000dbe:    bdf8        ..      POP      {r3-r7,pc}
        0x00000dc0:    e007        ..      B        0xdd2 ; SPI_Open + 306
        0x00000dc2:    6861        ah      LDR      r1,[r4,#4]
        0x00000dc4:    0a09        ..      LSRS     r1,r1,#8
        0x00000dc6:    0209        ..      LSLS     r1,r1,#8
        0x00000dc8:    4301        .C      ORRS     r1,r1,r0
        0x00000dca:    6061        a`      STR      r1,[r4,#4]
        0x00000dcc:    1c41        A.      ADDS     r1,r0,#1
        0x00000dce:    4628        (F      MOV      r0,r5
        0x00000dd0:    e7e9        ..      B        0xda6 ; SPI_Open + 262
        0x00000dd2:    480c        .H      LDR      r0,[pc,#48] ; [0xe04] = 0x40034000
        0x00000dd4:    4284        .B      CMP      r4,r0
        0x00000dd6:    d102        ..      BNE      0xdde ; SPI_Open + 318
        0x00000dd8:    6970        pi      LDR      r0,[r6,#0x14]
        0x00000dda:    2220         "      MOVS     r2,#0x20
        0x00000ddc:    e004        ..      B        0xde8 ; SPI_Open + 328
        0x00000dde:    480a        .H      LDR      r0,[pc,#40] ; [0xe08] = 0x40130000
        0x00000de0:    4284        .B      CMP      r4,r0
        0x00000de2:    d104        ..      BNE      0xdee ; SPI_Open + 334
        0x00000de4:    6970        pi      LDR      r0,[r6,#0x14]
        0x00000de6:    2240        @"      MOVS     r2,#0x40
        0x00000de8:    4310        .C      ORRS     r0,r0,r2
        0x00000dea:    6170        pa      STR      r0,[r6,#0x14]
        0x00000dec:    e003        ..      B        0xdf6 ; SPI_Open + 342
        0x00000dee:    6972        ri      LDR      r2,[r6,#0x14]
        0x00000df0:    2080        .       MOVS     r0,#0x80
        0x00000df2:    4302        .C      ORRS     r2,r2,r0
        0x00000df4:    6172        ra      STR      r2,[r6,#0x14]
        0x00000df6:    6061        a`      STR      r1,[r4,#4]
        0x00000df8:    4638        8F      MOV      r0,r7
        0x00000dfa:    e7e0        ..      B        0xdbe ; SPI_Open + 286
    $d
        0x00000dfc:    40030000    ...@    DCD    1073938432
        0x00000e00:    50000200    ...P    DCD    1342177792
        0x00000e04:    40034000    .@.@    DCD    1073954816
        0x00000e08:    40130000    ...@    DCD    1074987008
    $t
    i.SYS_Init
    SYS_Init
        0x00000e0c:    b570        p.      PUSH     {r4-r6,lr}
        0x00000e0e:    2059        Y       MOVS     r0,#0x59
        0x00000e10:    2116        .!      MOVS     r1,#0x16
        0x00000e12:    4c30        0L      LDR      r4,[pc,#192] ; [0xed4] = 0x50000100
        0x00000e14:    2288        ."      MOVS     r2,#0x88
        0x00000e16:    e002        ..      B        0xe1e ; SYS_Init + 18
        0x00000e18:    6020         `      STR      r0,[r4,#0]
        0x00000e1a:    6021        !`      STR      r1,[r4,#0]
        0x00000e1c:    6022        "`      STR      r2,[r4,#0]
        0x00000e1e:    6823        #h      LDR      r3,[r4,#0]
        0x00000e20:    2b01        .+      CMP      r3,#1
        0x00000e22:    d1f9        ..      BNE      0xe18 ; SYS_Init + 12
        0x00000e24:    2001        .       MOVS     r0,#1
        0x00000e26:    f7fffaf3    ....    BL       CLK_EnableXtalRC ; 0x410
        0x00000e2a:    2001        .       MOVS     r0,#1
        0x00000e2c:    f7fffc04    ....    BL       CLK_WaitClockReady ; 0x638
        0x00000e30:    4829        )H      LDR      r0,[pc,#164] ; [0xed8] = 0x2faf080
        0x00000e32:    f7fffb29    ..).    BL       CLK_SetCoreClock ; 0x488
        0x00000e36:    4d29        )M      LDR      r5,[pc,#164] ; [0xedc] = 0x5e800002
        0x00000e38:    4628        (F      MOV      r0,r5
        0x00000e3a:    f7fffa05    ....    BL       CLK_EnableModuleClock ; 0x248
        0x00000e3e:    2200        ."      MOVS     r2,#0
        0x00000e40:    4611        .F      MOV      r1,r2
        0x00000e42:    4628        (F      MOV      r0,r5
        0x00000e44:    f7fffb80    ....    BL       CLK_SetModuleClock ; 0x548
        0x00000e48:    4d25        %M      LDR      r5,[pc,#148] ; [0xee0] = 0x5ec00003
        0x00000e4a:    4628        (F      MOV      r0,r5
        0x00000e4c:    f7fff9fc    ....    BL       CLK_EnableModuleClock ; 0x248
        0x00000e50:    2200        ."      MOVS     r2,#0
        0x00000e52:    4611        .F      MOV      r1,r2
        0x00000e54:    4628        (F      MOV      r0,r5
        0x00000e56:    f7fffb77    ..w.    BL       CLK_SetModuleClock ; 0x548
        0x00000e5a:    4d22        "M      LDR      r5,[pc,#136] ; [0xee4] = 0x5f000004
        0x00000e5c:    4628        (F      MOV      r0,r5
        0x00000e5e:    f7fff9f3    ....    BL       CLK_EnableModuleClock ; 0x248
        0x00000e62:    2200        ."      MOVS     r2,#0
        0x00000e64:    4611        .F      MOV      r1,r2
        0x00000e66:    4628        (F      MOV      r0,r5
        0x00000e68:    f7fffb6e    ..n.    BL       CLK_SetModuleClock ; 0x548
        0x00000e6c:    4d1e        .M      LDR      r5,[pc,#120] ; [0xee8] = 0x57c00014
        0x00000e6e:    2200        ."      MOVS     r2,#0
        0x00000e70:    4611        .F      MOV      r1,r2
        0x00000e72:    4628        (F      MOV      r0,r5
        0x00000e74:    f7fffb68    ..h.    BL       CLK_SetModuleClock ; 0x548
        0x00000e78:    4628        (F      MOV      r0,r5
        0x00000e7a:    f7fff9e5    ....    BL       CLK_EnableModuleClock ; 0x248
        0x00000e7e:    481b        .H      LDR      r0,[pc,#108] ; [0xeec] = 0x57e00015
        0x00000e80:    f7fff9e2    ....    BL       CLK_EnableModuleClock ; 0x248
        0x00000e84:    4d1a        .M      LDR      r5,[pc,#104] ; [0xef0] = 0x5270000f
        0x00000e86:    4628        (F      MOV      r0,r5
        0x00000e88:    f7fff9de    ....    BL       CLK_EnableModuleClock ; 0x248
        0x00000e8c:    2200        ."      MOVS     r2,#0
        0x00000e8e:    2180        .!      MOVS     r1,#0x80
        0x00000e90:    4628        (F      MOV      r0,r5
        0x00000e92:    f7fffb59    ..Y.    BL       CLK_SetModuleClock ; 0x548
        0x00000e96:    2005        .       MOVS     r0,#5
        0x00000e98:    0700        ..      LSLS     r0,r0,#28
        0x00000e9a:    6b41        Ak      LDR      r1,[r0,#0x34]
        0x00000e9c:    2201        ."      MOVS     r2,#1
        0x00000e9e:    03d2        ..      LSLS     r2,r2,#15
        0x00000ea0:    4311        .C      ORRS     r1,r1,r2
        0x00000ea2:    6341        Ac      STR      r1,[r0,#0x34]
        0x00000ea4:    6b01        .k      LDR      r1,[r0,#0x30]
        0x00000ea6:    10d2        ..      ASRS     r2,r2,#3
        0x00000ea8:    4311        .C      ORRS     r1,r1,r2
        0x00000eaa:    6301        .c      STR      r1,[r0,#0x30]
        0x00000eac:    6bc1        .k      LDR      r1,[r0,#0x3c]
        0x00000eae:    1112        ..      ASRS     r2,r2,#4
        0x00000eb0:    4311        .C      ORRS     r1,r1,r2
        0x00000eb2:    63c1        .c      STR      r1,[r0,#0x3c]
        0x00000eb4:    6bc1        .k      LDR      r1,[r0,#0x3c]
        0x00000eb6:    0052        R.      LSLS     r2,r2,#1
        0x00000eb8:    4311        .C      ORRS     r1,r1,r2
        0x00000eba:    63c1        .c      STR      r1,[r0,#0x3c]
        0x00000ebc:    6bc1        .k      LDR      r1,[r0,#0x3c]
        0x00000ebe:    0052        R.      LSLS     r2,r2,#1
        0x00000ec0:    4311        .C      ORRS     r1,r1,r2
        0x00000ec2:    63c1        .c      STR      r1,[r0,#0x3c]
        0x00000ec4:    6bc1        .k      LDR      r1,[r0,#0x3c]
        0x00000ec6:    0052        R.      LSLS     r2,r2,#1
        0x00000ec8:    4311        .C      ORRS     r1,r1,r2
        0x00000eca:    63c1        .c      STR      r1,[r0,#0x3c]
        0x00000ecc:    2000        .       MOVS     r0,#0
        0x00000ece:    6020         `      STR      r0,[r4,#0]
        0x00000ed0:    bd70        p.      POP      {r4-r6,pc}
    $d
        0x00000ed2:    0000        ..      DCW    0
        0x00000ed4:    50000100    ...P    DCD    1342177536
        0x00000ed8:    02faf080    ....    DCD    50000000
        0x00000edc:    5e800002    ...^    DCD    1585446914
        0x00000ee0:    5ec00003    ...^    DCD    1589641219
        0x00000ee4:    5f000004    ..._    DCD    1593835524
        0x00000ee8:    57c00014    ...W    DCD    1472200724
        0x00000eec:    57e00015    ...W    DCD    1474297877
        0x00000ef0:    5270000f    ..pR    DCD    1383071759
    $t
    i.SendNEC
    SendNEC
        0x00000ef4:    b5f8        ..      PUSH     {r3-r7,lr}
        0x00000ef6:    4607        .F      MOV      r7,r0
        0x00000ef8:    2010        .       MOVS     r0,#0x10
        0x00000efa:    f7fffd8d    ....    BL       Mark ; 0xa18
        0x00000efe:    2008        .       MOVS     r0,#8
        0x00000f00:    f7fffec1    ....    BL       SPACE ; 0xc86
        0x00000f04:    2500        .%      MOVS     r5,#0
        0x00000f06:    2601        .&      MOVS     r6,#1
        0x00000f08:    2400        .$      MOVS     r4,#0
        0x00000f0a:    2001        .       MOVS     r0,#1
        0x00000f0c:    f7fffd84    ....    BL       Mark ; 0xa18
        0x00000f10:    5d78        x]      LDRB     r0,[r7,r5]
        0x00000f12:    4631        1F      MOV      r1,r6
        0x00000f14:    40a1        .@      LSLS     r1,r1,r4
        0x00000f16:    4208        .B      TST      r0,r1
        0x00000f18:    d001        ..      BEQ      0xf1e ; SendNEC + 42
        0x00000f1a:    2003        .       MOVS     r0,#3
        0x00000f1c:    e000        ..      B        0xf20 ; SendNEC + 44
        0x00000f1e:    2001        .       MOVS     r0,#1
        0x00000f20:    f7fffeb1    ....    BL       SPACE ; 0xc86
        0x00000f24:    1c64        d.      ADDS     r4,r4,#1
        0x00000f26:    b2e4        ..      UXTB     r4,r4
        0x00000f28:    2c08        .,      CMP      r4,#8
        0x00000f2a:    d3ee        ..      BCC      0xf0a ; SendNEC + 22
        0x00000f2c:    1c6d        m.      ADDS     r5,r5,#1
        0x00000f2e:    b2ed        ..      UXTB     r5,r5
        0x00000f30:    2d04        .-      CMP      r5,#4
        0x00000f32:    d3e9        ..      BCC      0xf08 ; SendNEC + 20
        0x00000f34:    2001        .       MOVS     r0,#1
        0x00000f36:    f7fffd6f    ..o.    BL       Mark ; 0xa18
        0x00000f3a:    bdf8        ..      POP      {r3-r7,pc}
    i.SystemCoreClockUpdate
    SystemCoreClockUpdate
        0x00000f3c:    b538        8.      PUSH     {r3-r5,lr}
        0x00000f3e:    a01d        ..      ADR      r0,{pc}+0x76 ; 0xfb4
        0x00000f40:    6800        .h      LDR      r0,[r0,#0]
        0x00000f42:    4c1d        .L      LDR      r4,[pc,#116] ; [0xfb8] = 0x50000200
        0x00000f44:    9000        ..      STR      r0,[sp,#0]
        0x00000f46:    6a21        !j      LDR      r1,[r4,#0x20]
        0x00000f48:    1320         .      ASRS     r0,r4,#12
        0x00000f4a:    4201        .B      TST      r1,r0
        0x00000f4c:    d001        ..      BEQ      0xf52 ; SystemCoreClockUpdate + 22
        0x00000f4e:    2000        .       MOVS     r0,#0
        0x00000f50:    e016        ..      B        0xf80 ; SystemCoreClockUpdate + 68
        0x00000f52:    0308        ..      LSLS     r0,r1,#12
        0x00000f54:    d501        ..      BPL      0xf5a ; SystemCoreClockUpdate + 30
        0x00000f56:    4819        .H      LDR      r0,[pc,#100] ; [0xfbc] = 0x1518000
        0x00000f58:    e000        ..      B        0xf5c ; SystemCoreClockUpdate + 32
        0x00000f5a:    4819        .H      LDR      r0,[pc,#100] ; [0xfc0] = 0xb71b00
        0x00000f5c:    038a        ..      LSLS     r2,r1,#14
        0x00000f5e:    d40f        ..      BMI      0xf80 ; SystemCoreClockUpdate + 68
        0x00000f60:    040a        ..      LSLS     r2,r1,#16
        0x00000f62:    0f92        ..      LSRS     r2,r2,#30
        0x00000f64:    466b        kF      MOV      r3,sp
        0x00000f66:    5c9b        .\      LDRB     r3,[r3,r2]
        0x00000f68:    05ca        ..      LSLS     r2,r1,#23
        0x00000f6a:    0489        ..      LSLS     r1,r1,#18
        0x00000f6c:    0dd2        ..      LSRS     r2,r2,#23
        0x00000f6e:    0ec9        ..      LSRS     r1,r1,#27
        0x00000f70:    1c89        ..      ADDS     r1,r1,#2
        0x00000f72:    0880        ..      LSRS     r0,r0,#2
        0x00000f74:    1c92        ..      ADDS     r2,r2,#2
        0x00000f76:    4359        YC      MULS     r1,r3,r1
        0x00000f78:    4350        PC      MULS     r0,r2,r0
        0x00000f7a:    f7fff8d1    ....    BL       __aeabi_uidiv ; 0x120
        0x00000f7e:    0080        ..      LSLS     r0,r0,#2
        0x00000f80:    4d10        .M      LDR      r5,[pc,#64] ; [0xfc4] = 0x20000000
        0x00000f82:    60a8        .`      STR      r0,[r5,#8]
        0x00000f84:    6921        !i      LDR      r1,[r4,#0x10]
        0x00000f86:    0749        I.      LSLS     r1,r1,#29
        0x00000f88:    0f49        I.      LSRS     r1,r1,#29
        0x00000f8a:    2902        .)      CMP      r1,#2
        0x00000f8c:    d003        ..      BEQ      0xf96 ; SystemCoreClockUpdate + 90
        0x00000f8e:    0088        ..      LSLS     r0,r1,#2
        0x00000f90:    4629        )F      MOV      r1,r5
        0x00000f92:    310c        .1      ADDS     r1,r1,#0xc
        0x00000f94:    5808        .X      LDR      r0,[r1,r0]
        0x00000f96:    69a1        .i      LDR      r1,[r4,#0x18]
        0x00000f98:    0709        ..      LSLS     r1,r1,#28
        0x00000f9a:    0f09        ..      LSRS     r1,r1,#28
        0x00000f9c:    1c49        I.      ADDS     r1,r1,#1
        0x00000f9e:    f7fff8bf    ....    BL       __aeabi_uidiv ; 0x120
        0x00000fa2:    4909        .I      LDR      r1,[pc,#36] ; [0xfc8] = 0xf4240
        0x00000fa4:    6028        (`      STR      r0,[r5,#0]
        0x00000fa6:    104a        J.      ASRS     r2,r1,#1
        0x00000fa8:    1880        ..      ADDS     r0,r0,r2
        0x00000faa:    f7fff8b9    ....    BL       __aeabi_uidiv ; 0x120
        0x00000fae:    6068        h`      STR      r0,[r5,#4]
        0x00000fb0:    bd38        8.      POP      {r3-r5,pc}
    $d
        0x00000fb2:    0000        ..      DCW    0
        0x00000fb4:    04020201    ....    DCD    67240449
        0x00000fb8:    50000200    ...P    DCD    1342177792
        0x00000fbc:    01518000    ..Q.    DCD    22118400
        0x00000fc0:    00b71b00    ....    DCD    12000000
        0x00000fc4:    20000000    ...     DCD    536870912
        0x00000fc8:    000f4240    @B..    DCD    1000000
    $t
    i.SystemInit
    SystemInit
        0x00000fcc:    4770        pG      BX       lr
        0x00000fce:    0000        ..      MOVS     r0,r0
    i.TIMER_GetModuleClock
    TIMER_GetModuleClock
        0x00000fd0:    b510        ..      PUSH     {r4,lr}
        0x00000fd2:    b088        ..      SUB      sp,sp,#0x20
        0x00000fd4:    4604        .F      MOV      r4,r0
        0x00000fd6:    2220         "      MOVS     r2,#0x20
        0x00000fd8:    4912        .I      LDR      r1,[pc,#72] ; [0x1024] = 0x216c
        0x00000fda:    4668        hF      MOV      r0,sp
        0x00000fdc:    f7fff8b6    ....    BL       __aeabi_memcpy ; 0x14c
        0x00000fe0:    4911        .I      LDR      r1,[pc,#68] ; [0x1028] = 0x40010000
        0x00000fe2:    4812        .H      LDR      r0,[pc,#72] ; [0x102c] = 0x50000200
        0x00000fe4:    428c        .B      CMP      r4,r1
        0x00000fe6:    d102        ..      BNE      0xfee ; TIMER_GetModuleClock + 30
        0x00000fe8:    6940        @i      LDR      r0,[r0,#0x14]
        0x00000fea:    0a00        ..      LSRS     r0,r0,#8
        0x00000fec:    e00d        ..      B        0x100a ; TIMER_GetModuleClock + 58
        0x00000fee:    490e        .I      LDR      r1,[pc,#56] ; [0x1028] = 0x40010000
        0x00000ff0:    3120         1      ADDS     r1,r1,#0x20
        0x00000ff2:    428c        .B      CMP      r4,r1
        0x00000ff4:    d102        ..      BNE      0xffc ; TIMER_GetModuleClock + 44
        0x00000ff6:    6940        @i      LDR      r0,[r0,#0x14]
        0x00000ff8:    0b00        ..      LSRS     r0,r0,#12
        0x00000ffa:    e006        ..      B        0x100a ; TIMER_GetModuleClock + 58
        0x00000ffc:    490c        .I      LDR      r1,[pc,#48] ; [0x1030] = 0x40110000
        0x00000ffe:    6940        @i      LDR      r0,[r0,#0x14]
        0x00001000:    428c        .B      CMP      r4,r1
        0x00001002:    d101        ..      BNE      0x1008 ; TIMER_GetModuleClock + 56
        0x00001004:    0c00        ..      LSRS     r0,r0,#16
        0x00001006:    e000        ..      B        0x100a ; TIMER_GetModuleClock + 58
        0x00001008:    0d00        ..      LSRS     r0,r0,#20
        0x0000100a:    0740        @.      LSLS     r0,r0,#29
        0x0000100c:    0f40        @.      LSRS     r0,r0,#29
        0x0000100e:    2802        .(      CMP      r0,#2
        0x00001010:    d004        ..      BEQ      0x101c ; TIMER_GetModuleClock + 76
        0x00001012:    0080        ..      LSLS     r0,r0,#2
        0x00001014:    4669        iF      MOV      r1,sp
        0x00001016:    5808        .X      LDR      r0,[r1,r0]
        0x00001018:    b008        ..      ADD      sp,sp,#0x20
        0x0000101a:    bd10        ..      POP      {r4,pc}
        0x0000101c:    4805        .H      LDR      r0,[pc,#20] ; [0x1034] = 0x20000000
        0x0000101e:    6800        .h      LDR      r0,[r0,#0]
        0x00001020:    e7fa        ..      B        0x1018 ; TIMER_GetModuleClock + 72
    $d
        0x00001022:    0000        ..      DCW    0
        0x00001024:    0000216c    l!..    DCD    8556
        0x00001028:    40010000    ...@    DCD    1073807360
        0x0000102c:    50000200    ...P    DCD    1342177792
        0x00001030:    40110000    ...@    DCD    1074855936
        0x00001034:    20000000    ...     DCD    536870912
    $t
    i.TIMER_Open
    TIMER_Open
        0x00001038:    b5f7        ..      PUSH     {r0-r2,r4-r7,lr}
        0x0000103a:    4617        .F      MOV      r7,r2
        0x0000103c:    4606        .F      MOV      r6,r0
        0x0000103e:    f7ffffc7    ....    BL       TIMER_GetModuleClock ; 0xfd0
        0x00001042:    4604        .F      MOV      r4,r0
        0x00001044:    2500        .%      MOVS     r5,#0
        0x00001046:    0840        @.      LSRS     r0,r0,#1
        0x00001048:    42b8        .B      CMP      r0,r7
        0x0000104a:    d201        ..      BCS      0x1050 ; TIMER_Open + 24
        0x0000104c:    2002        .       MOVS     r0,#2
        0x0000104e:    e017        ..      B        0x1080 ; TIMER_Open + 72
        0x00001050:    2101        .!      MOVS     r1,#1
        0x00001052:    0689        ..      LSLS     r1,r1,#26
        0x00001054:    428c        .B      CMP      r4,r1
        0x00001056:    d302        ..      BCC      0x105e ; TIMER_Open + 38
        0x00001058:    2507        .%      MOVS     r5,#7
        0x0000105a:    08e4        ..      LSRS     r4,r4,#3
        0x0000105c:    e00c        ..      B        0x1078 ; TIMER_Open + 64
        0x0000105e:    2101        .!      MOVS     r1,#1
        0x00001060:    0649        I.      LSLS     r1,r1,#25
        0x00001062:    428c        .B      CMP      r4,r1
        0x00001064:    d302        ..      BCC      0x106c ; TIMER_Open + 52
        0x00001066:    2503        .%      MOVS     r5,#3
        0x00001068:    08a4        ..      LSRS     r4,r4,#2
        0x0000106a:    e005        ..      B        0x1078 ; TIMER_Open + 64
        0x0000106c:    2101        .!      MOVS     r1,#1
        0x0000106e:    0609        ..      LSLS     r1,r1,#24
        0x00001070:    428c        .B      CMP      r4,r1
        0x00001072:    d301        ..      BCC      0x1078 ; TIMER_Open + 64
        0x00001074:    2501        .%      MOVS     r5,#1
        0x00001076:    4604        .F      MOV      r4,r0
        0x00001078:    4639        9F      MOV      r1,r7
        0x0000107a:    4620         F      MOV      r0,r4
        0x0000107c:    f7fff850    ..P.    BL       __aeabi_uidiv ; 0x120
        0x00001080:    9901        ..      LDR      r1,[sp,#4]
        0x00001082:    4329        )C      ORRS     r1,r1,r5
        0x00001084:    6031        1`      STR      r1,[r6,#0]
        0x00001086:    6070        p`      STR      r0,[r6,#4]
        0x00001088:    1c6d        m.      ADDS     r5,r5,#1
        0x0000108a:    4368        hC      MULS     r0,r5,r0
        0x0000108c:    4601        .F      MOV      r1,r0
        0x0000108e:    4620         F      MOV      r0,r4
        0x00001090:    f7fff846    ..F.    BL       __aeabi_uidiv ; 0x120
        0x00001094:    bdfe        ..      POP      {r1-r7,pc}
        0x00001096:    0000        ..      MOVS     r0,r0
    i.TMR0_IRQHandler
    TMR0_IRQHandler
        0x00001098:    4803        .H      LDR      r0,[pc,#12] ; [0x10a8] = 0x200007fc
        0x0000109a:    6981        .i      LDR      r1,[r0,#0x18]
        0x0000109c:    1c49        I.      ADDS     r1,r1,#1
        0x0000109e:    6181        .a      STR      r1,[r0,#0x18]
        0x000010a0:    4902        .I      LDR      r1,[pc,#8] ; [0x10ac] = 0x40010000
        0x000010a2:    2001        .       MOVS     r0,#1
        0x000010a4:    6088        .`      STR      r0,[r1,#8]
        0x000010a6:    4770        pG      BX       lr
    $d
        0x000010a8:    200007fc    ...     DCD    536872956
        0x000010ac:    40010000    ...@    DCD    1073807360
    $t
    i.TMR1_IRQHandler
    TMR1_IRQHandler
        0x000010b0:    b5f8        ..      PUSH     {r3-r7,lr}
        0x000010b2:    483f        ?H      LDR      r0,[pc,#252] ; [0x11b0] = 0x200007fc
        0x000010b4:    7c81        .|      LDRB     r1,[r0,#0x12]
        0x000010b6:    1c49        I.      ADDS     r1,r1,#1
        0x000010b8:    7481        .t      STRB     r1,[r0,#0x12]
        0x000010ba:    7c81        .|      LDRB     r1,[r0,#0x12]
        0x000010bc:    293c        <)      CMP      r1,#0x3c
        0x000010be:    d972        r.      BLS      0x11a6 ; TMR1_IRQHandler + 246
        0x000010c0:    7c00        .|      LDRB     r0,[r0,#0x10]
        0x000010c2:    2802        .(      CMP      r0,#2
        0x000010c4:    d962        b.      BLS      0x118c ; TMR1_IRQHandler + 220
        0x000010c6:    4d3b        ;M      LDR      r5,[pc,#236] ; [0x11b4] = 0x20000e40
        0x000010c8:    6829        )h      LDR      r1,[r5,#0]
        0x000010ca:    6868        hh      LDR      r0,[r5,#4]
        0x000010cc:    68aa        .h      LDR      r2,[r5,#8]
        0x000010ce:    1a41        A.      SUBS     r1,r0,r1
        0x000010d0:    1a10        ..      SUBS     r0,r2,r0
        0x000010d2:    4a39        9J      LDR      r2,[pc,#228] ; [0x11b8] = 0xfffffcad
        0x000010d4:    1889        ..      ADDS     r1,r1,r2
        0x000010d6:    2963        c)      CMP      r1,#0x63
        0x000010d8:    d258        X.      BCS      0x118c ; TMR1_IRQHandler + 220
        0x000010da:    21ff        .!      MOVS     r1,#0xff
        0x000010dc:    31aa        .1      ADDS     r1,r1,#0xaa
        0x000010de:    4288        .B      CMP      r0,r1
        0x000010e0:    d954        T.      BLS      0x118c ; TMR1_IRQHandler + 220
        0x000010e2:    21ff        .!      MOVS     r1,#0xff
        0x000010e4:    31dc        .1      ADDS     r1,r1,#0xdc
        0x000010e6:    4288        .B      CMP      r0,r1
        0x000010e8:    d250        P.      BCS      0x118c ; TMR1_IRQHandler + 220
        0x000010ea:    2300        .#      MOVS     r3,#0
        0x000010ec:    461a        .F      MOV      r2,r3
        0x000010ee:    2004        .       MOVS     r0,#4
        0x000010f0:    4619        .F      MOV      r1,r3
        0x000010f2:    e010        ..      B        0x1116 ; TMR1_IRQHandler + 102
        0x000010f4:    0084        ..      LSLS     r4,r0,#2
        0x000010f6:    592e        .Y      LDR      r6,[r5,r4]
        0x000010f8:    1964        d.      ADDS     r4,r4,r5
        0x000010fa:    3c80        .<      SUBS     r4,r4,#0x80
        0x000010fc:    6fe4        .o      LDR      r4,[r4,#0x7c]
        0x000010fe:    1b34        4.      SUBS     r4,r6,r4
        0x00001100:    2c64        d,      CMP      r4,#0x64
        0x00001102:    d901        ..      BLS      0x1108 ; TMR1_IRQHandler + 88
        0x00001104:    2401        .$      MOVS     r4,#1
        0x00001106:    e000        ..      B        0x110a ; TMR1_IRQHandler + 90
        0x00001108:    2400        .$      MOVS     r4,#0
        0x0000110a:    005b        [.      LSLS     r3,r3,#1
        0x0000110c:    1c80        ..      ADDS     r0,r0,#2
        0x0000110e:    4323        #C      ORRS     r3,r3,r4
        0x00001110:    1c49        I.      ADDS     r1,r1,#1
        0x00001112:    b2c0        ..      UXTB     r0,r0
        0x00001114:    b2c9        ..      UXTB     r1,r1
        0x00001116:    4c26        &L      LDR      r4,[pc,#152] ; [0x11b0] = 0x200007fc
        0x00001118:    7c24        $|      LDRB     r4,[r4,#0x10]
        0x0000111a:    42a0        .B      CMP      r0,r4
        0x0000111c:    d201        ..      BCS      0x1122 ; TMR1_IRQHandler + 114
        0x0000111e:    2920         )      CMP      r1,#0x20
        0x00001120:    d3e8        ..      BCC      0x10f4 ; TMR1_IRQHandler + 68
        0x00001122:    2920         )      CMP      r1,#0x20
        0x00001124:    d132        2.      BNE      0x118c ; TMR1_IRQHandler + 220
        0x00001126:    2100        .!      MOVS     r1,#0
        0x00001128:    00cf        ..      LSLS     r7,r1,#3
        0x0000112a:    2000        .       MOVS     r0,#0
        0x0000112c:    463c        <F      MOV      r4,r7
        0x0000112e:    3408        .4      ADDS     r4,r4,#8
        0x00001130:    46a4        .F      MOV      r12,r4
        0x00001132:    4665        eF      MOV      r5,r12
        0x00001134:    1a2d        -.      SUBS     r5,r5,r0
        0x00001136:    2401        .$      MOVS     r4,#1
        0x00001138:    183e        >.      ADDS     r6,r7,r0
        0x0000113a:    40b4        .@      LSLS     r4,r4,r6
        0x0000113c:    1e6d        m.      SUBS     r5,r5,#1
        0x0000113e:    401c        .@      ANDS     r4,r4,r3
        0x00001140:    d000        ..      BEQ      0x1144 ; TMR1_IRQHandler + 148
        0x00001142:    2401        .$      MOVS     r4,#1
        0x00001144:    40ac        .@      LSLS     r4,r4,r5
        0x00001146:    1c40        @.      ADDS     r0,r0,#1
        0x00001148:    4322        "C      ORRS     r2,r2,r4
        0x0000114a:    b2c0        ..      UXTB     r0,r0
        0x0000114c:    2808        .(      CMP      r0,#8
        0x0000114e:    d3f0        ..      BCC      0x1132 ; TMR1_IRQHandler + 130
        0x00001150:    1c49        I.      ADDS     r1,r1,#1
        0x00001152:    b2c9        ..      UXTB     r1,r1
        0x00001154:    2904        .)      CMP      r1,#4
        0x00001156:    d3e7        ..      BCC      0x1128 ; TMR1_IRQHandler + 120
        0x00001158:    9200        ..      STR      r2,[sp,#0]
        0x0000115a:    4915        .I      LDR      r1,[pc,#84] ; [0x11b0] = 0x200007fc
        0x0000115c:    4a15        .J      LDR      r2,[pc,#84] ; [0x11b4] = 0x20000e40
        0x0000115e:    7808        .x      LDRB     r0,[r1,#0]
        0x00001160:    466b        kF      MOV      r3,sp
        0x00001162:    78db        .x      LDRB     r3,[r3,#3]
        0x00001164:    0080        ..      LSLS     r0,r0,#2
        0x00001166:    3a54        T:      SUBS     r2,r2,#0x54
        0x00001168:    5413        .T      STRB     r3,[r2,r0]
        0x0000116a:    466b        kF      MOV      r3,sp
        0x0000116c:    789b        .x      LDRB     r3,[r3,#2]
        0x0000116e:    1880        ..      ADDS     r0,r0,r2
        0x00001170:    7043        Cp      STRB     r3,[r0,#1]
        0x00001172:    466b        kF      MOV      r3,sp
        0x00001174:    785a        Zx      LDRB     r2,[r3,#1]
        0x00001176:    7082        .p      STRB     r2,[r0,#2]
        0x00001178:    781a        .x      LDRB     r2,[r3,#0]
        0x0000117a:    70c2        .p      STRB     r2,[r0,#3]
        0x0000117c:    2001        .       MOVS     r0,#1
        0x0000117e:    4b0f        .K      LDR      r3,[pc,#60] ; [0x11bc] = 0xe000e180
        0x00001180:    2220         "      MOVS     r2,#0x20
        0x00001182:    601a        .`      STR      r2,[r3,#0]
        0x00001184:    7088        .p      STRB     r0,[r1,#2]
        0x00001186:    220b        ."      MOVS     r2,#0xb
        0x00001188:    704a        Jp      STRB     r2,[r1,#1]
        0x0000118a:    7308        .s      STRB     r0,[r1,#0xc]
        0x0000118c:    4808        .H      LDR      r0,[pc,#32] ; [0x11b0] = 0x200007fc
        0x0000118e:    2100        .!      MOVS     r1,#0
        0x00001190:    6201        .b      STR      r1,[r0,#0x20]
        0x00001192:    7401        .t      STRB     r1,[r0,#0x10]
        0x00001194:    7441        At      STRB     r1,[r0,#0x11]
        0x00001196:    7481        .t      STRB     r1,[r0,#0x12]
        0x00001198:    2101        .!      MOVS     r1,#1
        0x0000119a:    74c1        .t      STRB     r1,[r0,#0x13]
        0x0000119c:    4908        .I      LDR      r1,[pc,#32] ; [0x11c0] = 0x40010020
        0x0000119e:    6808        .h      LDR      r0,[r1,#0]
        0x000011a0:    064a        J.      LSLS     r2,r1,#25
        0x000011a2:    4390        .C      BICS     r0,r0,r2
        0x000011a4:    6008        .`      STR      r0,[r1,#0]
        0x000011a6:    4906        .I      LDR      r1,[pc,#24] ; [0x11c0] = 0x40010020
        0x000011a8:    2001        .       MOVS     r0,#1
        0x000011aa:    6088        .`      STR      r0,[r1,#8]
        0x000011ac:    bdf8        ..      POP      {r3-r7,pc}
    $d
        0x000011ae:    0000        ..      DCW    0
        0x000011b0:    200007fc    ...     DCD    536872956
        0x000011b4:    20000e40    @..     DCD    536874560
        0x000011b8:    fffffcad    ....    DCD    4294966445
        0x000011bc:    e000e180    ....    DCD    3758154112
        0x000011c0:    40010020     ..@    DCD    1073807392
    $t
    i.TMR2_IRQHandler
    TMR2_IRQHandler
        0x000011c4:    b570        p.      PUSH     {r4-r6,lr}
        0x000011c6:    4c2f        /L      LDR      r4,[pc,#188] ; [0x1284] = 0x200007fc
        0x000011c8:    69e0        .i      LDR      r0,[r4,#0x1c]
        0x000011ca:    1c40        @.      ADDS     r0,r0,#1
        0x000011cc:    61e0        .a      STR      r0,[r4,#0x1c]
        0x000011ce:    210a        .!      MOVS     r1,#0xa
        0x000011d0:    69e0        .i      LDR      r0,[r4,#0x1c]
        0x000011d2:    f7feffa5    ....    BL       __aeabi_uidiv ; 0x120
        0x000011d6:    2600        .&      MOVS     r6,#0
        0x000011d8:    2501        .%      MOVS     r5,#1
        0x000011da:    2900        .)      CMP      r1,#0
        0x000011dc:    d12d        -.      BNE      0x123a ; TMR2_IRQHandler + 118
        0x000011de:    7d20         }      LDRB     r0,[r4,#0x14]
        0x000011e0:    1c40        @.      ADDS     r0,r0,#1
        0x000011e2:    0780        ..      LSLS     r0,r0,#30
        0x000011e4:    0f80        ..      LSRS     r0,r0,#30
        0x000011e6:    7520         u      STRB     r0,[r4,#0x14]
        0x000011e8:    7566        fu      STRB     r6,[r4,#0x15]
        0x000011ea:    7d21        !}      LDRB     r1,[r4,#0x14]
        0x000011ec:    4826        &H      LDR      r0,[pc,#152] ; [0x1288] = 0x50004200
        0x000011ee:    2900        .)      CMP      r1,#0
        0x000011f0:    d009        ..      BEQ      0x1206 ; TMR2_IRQHandler + 66
        0x000011f2:    7d21        !}      LDRB     r1,[r4,#0x14]
        0x000011f4:    2901        .)      CMP      r1,#1
        0x000011f6:    d00d        ..      BEQ      0x1214 ; TMR2_IRQHandler + 80
        0x000011f8:    7d21        !}      LDRB     r1,[r4,#0x14]
        0x000011fa:    2902        .)      CMP      r1,#2
        0x000011fc:    d010        ..      BEQ      0x1220 ; TMR2_IRQHandler + 92
        0x000011fe:    7d20         }      LDRB     r0,[r4,#0x14]
        0x00001200:    2803        .(      CMP      r0,#3
        0x00001202:    d014        ..      BEQ      0x122e ; TMR2_IRQHandler + 106
        0x00001204:    e016        ..      B        0x1234 ; TMR2_IRQHandler + 112
        0x00001206:    6005        .`      STR      r5,[r0,#0]
        0x00001208:    6045        E`      STR      r5,[r0,#4]
        0x0000120a:    6085        .`      STR      r5,[r0,#8]
        0x0000120c:    60c5        .`      STR      r5,[r0,#0xc]
        0x0000120e:    6105        .a      STR      r5,[r0,#0x10]
        0x00001210:    6146        Fa      STR      r6,[r0,#0x14]
        0x00001212:    e00f        ..      B        0x1234 ; TMR2_IRQHandler + 112
        0x00001214:    6005        .`      STR      r5,[r0,#0]
        0x00001216:    6045        E`      STR      r5,[r0,#4]
        0x00001218:    6085        .`      STR      r5,[r0,#8]
        0x0000121a:    60c5        .`      STR      r5,[r0,#0xc]
        0x0000121c:    6106        .a      STR      r6,[r0,#0x10]
        0x0000121e:    e004        ..      B        0x122a ; TMR2_IRQHandler + 102
        0x00001220:    6005        .`      STR      r5,[r0,#0]
        0x00001222:    6045        E`      STR      r5,[r0,#4]
        0x00001224:    6085        .`      STR      r5,[r0,#8]
        0x00001226:    60c6        .`      STR      r6,[r0,#0xc]
        0x00001228:    6105        .a      STR      r5,[r0,#0x10]
        0x0000122a:    6145        Ea      STR      r5,[r0,#0x14]
        0x0000122c:    e002        ..      B        0x1234 ; TMR2_IRQHandler + 112
        0x0000122e:    7de0        .}      LDRB     r0,[r4,#0x17]
        0x00001230:    75a0        .u      STRB     r0,[r4,#0x16]
        0x00001232:    75e6        .u      STRB     r6,[r4,#0x17]
        0x00001234:    2004        .       MOVS     r0,#4
        0x00001236:    f7fffc03    ....    BL       NVIC_EnableIRQ ; 0xa40
        0x0000123a:    2164        d!      MOVS     r1,#0x64
        0x0000123c:    69e0        .i      LDR      r0,[r4,#0x1c]
        0x0000123e:    f7feff6f    ..o.    BL       __aeabi_uidiv ; 0x120
        0x00001242:    2900        .)      CMP      r1,#0
        0x00001244:    d101        ..      BNE      0x124a ; TMR2_IRQHandler + 134
        0x00001246:    7b20         {      LDRB     r0,[r4,#0xc]
        0x00001248:    72e0        .r      STRB     r0,[r4,#0xb]
        0x0000124a:    21c8        .!      MOVS     r1,#0xc8
        0x0000124c:    69e0        .i      LDR      r0,[r4,#0x1c]
        0x0000124e:    f7feff67    ..g.    BL       __aeabi_uidiv ; 0x120
        0x00001252:    2900        .)      CMP      r1,#0
        0x00001254:    d113        ..      BNE      0x127e ; TMR2_IRQHandler + 186
        0x00001256:    7860        `x      LDRB     r0,[r4,#1]
        0x00001258:    281f        .(      CMP      r0,#0x1f
        0x0000125a:    d110        ..      BNE      0x127e ; TMR2_IRQHandler + 186
        0x0000125c:    7be0        .{      LDRB     r0,[r4,#0xf]
        0x0000125e:    2800        .(      CMP      r0,#0
        0x00001260:    d00d        ..      BEQ      0x127e ; TMR2_IRQHandler + 186
        0x00001262:    7be0        .{      LDRB     r0,[r4,#0xf]
        0x00001264:    1e40        @.      SUBS     r0,r0,#1
        0x00001266:    73e0        .s      STRB     r0,[r4,#0xf]
        0x00001268:    7be0        .{      LDRB     r0,[r4,#0xf]
        0x0000126a:    2800        .(      CMP      r0,#0
        0x0000126c:    d107        ..      BNE      0x127e ; TMR2_IRQHandler + 186
        0x0000126e:    7066        fp      STRB     r6,[r4,#1]
        0x00001270:    70a5        .p      STRB     r5,[r4,#2]
        0x00001272:    7226        &r      STRB     r6,[r4,#8]
        0x00001274:    7266        fr      STRB     r6,[r4,#9]
        0x00001276:    70e6        .p      STRB     r6,[r4,#3]
        0x00001278:    7125        %q      STRB     r5,[r4,#4]
        0x0000127a:    7325        %s      STRB     r5,[r4,#0xc]
        0x0000127c:    7365        es      STRB     r5,[r4,#0xd]
        0x0000127e:    4803        .H      LDR      r0,[pc,#12] ; [0x128c] = 0x40110000
        0x00001280:    6085        .`      STR      r5,[r0,#8]
        0x00001282:    bd70        p.      POP      {r4-r6,pc}
    $d
        0x00001284:    200007fc    ...     DCD    536872956
        0x00001288:    50004200    .B.P    DCD    1342194176
        0x0000128c:    40110000    ...@    DCD    1074855936
    $t
    i.__0sprintf$8
    __0sprintf$8
    __1sprintf$8
    __2sprintf
        0x00001290:    b40f        ..      PUSH     {r0-r3}
        0x00001292:    b510        ..      PUSH     {r4,lr}
        0x00001294:    a904        ..      ADD      r1,sp,#0x10
        0x00001296:    4b07        .K      LDR      r3,[pc,#28] ; [0x12b4] = 0x1765
        0x00001298:    aa02        ..      ADD      r2,sp,#8
        0x0000129a:    9803        ..      LDR      r0,[sp,#0xc]
        0x0000129c:    f000f828    ..(.    BL       _printf_core ; 0x12f0
        0x000012a0:    4604        .F      MOV      r4,r0
        0x000012a2:    a902        ..      ADD      r1,sp,#8
        0x000012a4:    2000        .       MOVS     r0,#0
        0x000012a6:    f000fa5d    ..].    BL       _sputc ; 0x1764
        0x000012aa:    4620         F      MOV      r0,r4
        0x000012ac:    bc10        ..      POP      {r4}
        0x000012ae:    bc08        ..      POP      {r3}
        0x000012b0:    b004        ..      ADD      sp,sp,#0x10
        0x000012b2:    4718        .G      BX       r3
    $d
        0x000012b4:    00001765    e...    DCD    5989
    $t
    i.__ARM_common_switch8
    __ARM_common_switch8
        0x000012b8:    b430        0.      PUSH     {r4,r5}
        0x000012ba:    4674        tF      MOV      r4,lr
        0x000012bc:    1e64        d.      SUBS     r4,r4,#1
        0x000012be:    7825        %x      LDRB     r5,[r4,#0]
        0x000012c0:    1c64        d.      ADDS     r4,r4,#1
        0x000012c2:    42ab        .B      CMP      r3,r5
        0x000012c4:    d200        ..      BCS      0x12c8 ; __ARM_common_switch8 + 16
        0x000012c6:    461d        .F      MOV      r5,r3
        0x000012c8:    5d63        c]      LDRB     r3,[r4,r5]
        0x000012ca:    005b        [.      LSLS     r3,r3,#1
        0x000012cc:    18e3        ..      ADDS     r3,r4,r3
        0x000012ce:    bc30        0.      POP      {r4,r5}
        0x000012d0:    4718        .G      BX       r3
    i.__scatterload_copy
    __scatterload_copy
        0x000012d2:    e002        ..      B        0x12da ; __scatterload_copy + 8
        0x000012d4:    c808        ..      LDM      r0!,{r3}
        0x000012d6:    1f12        ..      SUBS     r2,r2,#4
        0x000012d8:    c108        ..      STM      r1!,{r3}
        0x000012da:    2a00        .*      CMP      r2,#0
        0x000012dc:    d1fa        ..      BNE      0x12d4 ; __scatterload_copy + 2
        0x000012de:    4770        pG      BX       lr
    i.__scatterload_null
    __scatterload_null
        0x000012e0:    4770        pG      BX       lr
    i.__scatterload_zeroinit
    __scatterload_zeroinit
        0x000012e2:    2000        .       MOVS     r0,#0
        0x000012e4:    e001        ..      B        0x12ea ; __scatterload_zeroinit + 8
        0x000012e6:    c101        ..      STM      r1!,{r0}
        0x000012e8:    1f12        ..      SUBS     r2,r2,#4
        0x000012ea:    2a00        .*      CMP      r2,#0
        0x000012ec:    d1fb        ..      BNE      0x12e6 ; __scatterload_zeroinit + 4
        0x000012ee:    4770        pG      BX       lr
    i._printf_core
    _printf_core
        0x000012f0:    b5ff        ..      PUSH     {r0-r7,lr}
        0x000012f2:    b091        ..      SUB      sp,sp,#0x44
        0x000012f4:    460f        .F      MOV      r7,r1
        0x000012f6:    4605        .F      MOV      r5,r0
        0x000012f8:    2600        .&      MOVS     r6,#0
        0x000012fa:    e006        ..      B        0x130a ; _printf_core + 26
        0x000012fc:    2825        %(      CMP      r0,#0x25
        0x000012fe:    d00a        ..      BEQ      0x1316 ; _printf_core + 38
        0x00001300:    9a14        ..      LDR      r2,[sp,#0x50]
        0x00001302:    9913        ..      LDR      r1,[sp,#0x4c]
        0x00001304:    4790        .G      BLX      r2
        0x00001306:    1c6d        m.      ADDS     r5,r5,#1
        0x00001308:    1c76        v.      ADDS     r6,r6,#1
        0x0000130a:    7828        (x      LDRB     r0,[r5,#0]
        0x0000130c:    2800        .(      CMP      r0,#0
        0x0000130e:    d1f5        ..      BNE      0x12fc ; _printf_core + 12
        0x00001310:    4630        0F      MOV      r0,r6
        0x00001312:    b015        ..      ADD      sp,sp,#0x54
        0x00001314:    bdf0        ..      POP      {r4-r7,pc}
        0x00001316:    2400        .$      MOVS     r4,#0
        0x00001318:    9400        ..      STR      r4,[sp,#0]
        0x0000131a:    2101        .!      MOVS     r1,#1
        0x0000131c:    4af3        .J      LDR      r2,[pc,#972] ; [0x16ec] = 0x12809
        0x0000131e:    9402        ..      STR      r4,[sp,#8]
        0x00001320:    e000        ..      B        0x1324 ; _printf_core + 52
        0x00001322:    4304        .C      ORRS     r4,r4,r0
        0x00001324:    1c6d        m.      ADDS     r5,r5,#1
        0x00001326:    782b        +x      LDRB     r3,[r5,#0]
        0x00001328:    4608        .F      MOV      r0,r1
        0x0000132a:    3b20         ;      SUBS     r3,r3,#0x20
        0x0000132c:    4098        .@      LSLS     r0,r0,r3
        0x0000132e:    4210        .B      TST      r0,r2
        0x00001330:    d1f7        ..      BNE      0x1322 ; _printf_core + 50
        0x00001332:    7828        (x      LDRB     r0,[r5,#0]
        0x00001334:    282a        *(      CMP      r0,#0x2a
        0x00001336:    d00e        ..      BEQ      0x1356 ; _printf_core + 102
        0x00001338:    2102        .!      MOVS     r1,#2
        0x0000133a:    7828        (x      LDRB     r0,[r5,#0]
        0x0000133c:    4602        .F      MOV      r2,r0
        0x0000133e:    3a30        0:      SUBS     r2,r2,#0x30
        0x00001340:    2a09        .*      CMP      r2,#9
        0x00001342:    d815        ..      BHI      0x1370 ; _printf_core + 128
        0x00001344:    9a00        ..      LDR      r2,[sp,#0]
        0x00001346:    230a        .#      MOVS     r3,#0xa
        0x00001348:    435a        ZC      MULS     r2,r3,r2
        0x0000134a:    3a30        0:      SUBS     r2,r2,#0x30
        0x0000134c:    1880        ..      ADDS     r0,r0,r2
        0x0000134e:    430c        .C      ORRS     r4,r4,r1
        0x00001350:    1c6d        m.      ADDS     r5,r5,#1
        0x00001352:    9000        ..      STR      r0,[sp,#0]
        0x00001354:    e7f1        ..      B        0x133a ; _printf_core + 74
        0x00001356:    cf01        ..      LDM      r7!,{r0}
        0x00001358:    9000        ..      STR      r0,[sp,#0]
        0x0000135a:    2800        .(      CMP      r0,#0
        0x0000135c:    da05        ..      BGE      0x136a ; _printf_core + 122
        0x0000135e:    2001        .       MOVS     r0,#1
        0x00001360:    0340        @.      LSLS     r0,r0,#13
        0x00001362:    4304        .C      ORRS     r4,r4,r0
        0x00001364:    9800        ..      LDR      r0,[sp,#0]
        0x00001366:    4240        @B      RSBS     r0,r0,#0
        0x00001368:    9000        ..      STR      r0,[sp,#0]
        0x0000136a:    2002        .       MOVS     r0,#2
        0x0000136c:    4304        .C      ORRS     r4,r4,r0
        0x0000136e:    1c6d        m.      ADDS     r5,r5,#1
        0x00001370:    7828        (x      LDRB     r0,[r5,#0]
        0x00001372:    282e        .(      CMP      r0,#0x2e
        0x00001374:    d115        ..      BNE      0x13a2 ; _printf_core + 178
        0x00001376:    2004        .       MOVS     r0,#4
        0x00001378:    4304        .C      ORRS     r4,r4,r0
        0x0000137a:    7868        hx      LDRB     r0,[r5,#1]
        0x0000137c:    1c6d        m.      ADDS     r5,r5,#1
        0x0000137e:    282a        *(      CMP      r0,#0x2a
        0x00001380:    d10a        ..      BNE      0x1398 ; _printf_core + 168
        0x00001382:    cf01        ..      LDM      r7!,{r0}
        0x00001384:    1c6d        m.      ADDS     r5,r5,#1
        0x00001386:    9002        ..      STR      r0,[sp,#8]
        0x00001388:    e00b        ..      B        0x13a2 ; _printf_core + 178
        0x0000138a:    9902        ..      LDR      r1,[sp,#8]
        0x0000138c:    220a        ."      MOVS     r2,#0xa
        0x0000138e:    4351        QC      MULS     r1,r2,r1
        0x00001390:    3930        09      SUBS     r1,r1,#0x30
        0x00001392:    1840        @.      ADDS     r0,r0,r1
        0x00001394:    1c6d        m.      ADDS     r5,r5,#1
        0x00001396:    9002        ..      STR      r0,[sp,#8]
        0x00001398:    7828        (x      LDRB     r0,[r5,#0]
        0x0000139a:    4601        .F      MOV      r1,r0
        0x0000139c:    3930        09      SUBS     r1,r1,#0x30
        0x0000139e:    2909        .)      CMP      r1,#9
        0x000013a0:    d9f3        ..      BLS      0x138a ; _printf_core + 154
        0x000013a2:    7828        (x      LDRB     r0,[r5,#0]
        0x000013a4:    286c        l(      CMP      r0,#0x6c
        0x000013a6:    d010        ..      BEQ      0x13ca ; _printf_core + 218
        0x000013a8:    dc06        ..      BGT      0x13b8 ; _printf_core + 200
        0x000013aa:    284c        L(      CMP      r0,#0x4c
        0x000013ac:    d01a        ..      BEQ      0x13e4 ; _printf_core + 244
        0x000013ae:    2868        h(      CMP      r0,#0x68
        0x000013b0:    d00e        ..      BEQ      0x13d0 ; _printf_core + 224
        0x000013b2:    286a        j(      CMP      r0,#0x6a
        0x000013b4:    d117        ..      BNE      0x13e6 ; _printf_core + 246
        0x000013b6:    e004        ..      B        0x13c2 ; _printf_core + 210
        0x000013b8:    2874        t(      CMP      r0,#0x74
        0x000013ba:    d013        ..      BEQ      0x13e4 ; _printf_core + 244
        0x000013bc:    287a        z(      CMP      r0,#0x7a
        0x000013be:    d112        ..      BNE      0x13e6 ; _printf_core + 246
        0x000013c0:    e010        ..      B        0x13e4 ; _printf_core + 244
        0x000013c2:    2001        .       MOVS     r0,#1
        0x000013c4:    0540        @.      LSLS     r0,r0,#21
        0x000013c6:    4304        .C      ORRS     r4,r4,r0
        0x000013c8:    e00c        ..      B        0x13e4 ; _printf_core + 244
        0x000013ca:    2101        .!      MOVS     r1,#1
        0x000013cc:    0509        ..      LSLS     r1,r1,#20
        0x000013ce:    e001        ..      B        0x13d4 ; _printf_core + 228
        0x000013d0:    2103        .!      MOVS     r1,#3
        0x000013d2:    0509        ..      LSLS     r1,r1,#20
        0x000013d4:    430c        .C      ORRS     r4,r4,r1
        0x000013d6:    7869        ix      LDRB     r1,[r5,#1]
        0x000013d8:    4281        .B      CMP      r1,r0
        0x000013da:    d103        ..      BNE      0x13e4 ; _printf_core + 244
        0x000013dc:    2001        .       MOVS     r0,#1
        0x000013de:    0500        ..      LSLS     r0,r0,#20
        0x000013e0:    1824        $.      ADDS     r4,r4,r0
        0x000013e2:    1c6d        m.      ADDS     r5,r5,#1
        0x000013e4:    1c6d        m.      ADDS     r5,r5,#1
        0x000013e6:    7828        (x      LDRB     r0,[r5,#0]
        0x000013e8:    9003        ..      STR      r0,[sp,#0xc]
        0x000013ea:    286e        n(      CMP      r0,#0x6e
        0x000013ec:    d01e        ..      BEQ      0x142c ; _printf_core + 316
        0x000013ee:    dc0c        ..      BGT      0x140a ; _printf_core + 282
        0x000013f0:    2863        c(      CMP      r0,#0x63
        0x000013f2:    d031        1.      BEQ      0x1458 ; _printf_core + 360
        0x000013f4:    dc04        ..      BGT      0x1400 ; _printf_core + 272
        0x000013f6:    2800        .(      CMP      r0,#0
        0x000013f8:    d08a        ..      BEQ      0x1310 ; _printf_core + 32
        0x000013fa:    2858        X(      CMP      r0,#0x58
        0x000013fc:    d111        ..      BNE      0x1422 ; _printf_core + 306
        0x000013fe:    e0b2        ..      B        0x1566 ; _printf_core + 630
        0x00001400:    2864        d(      CMP      r0,#0x64
        0x00001402:    d07b        {.      BEQ      0x14fc ; _printf_core + 524
        0x00001404:    2869        i(      CMP      r0,#0x69
        0x00001406:    d10c        ..      BNE      0x1422 ; _printf_core + 306
        0x00001408:    e078        x.      B        0x14fc ; _printf_core + 524
        0x0000140a:    2873        s(      CMP      r0,#0x73
        0x0000140c:    d02d        -.      BEQ      0x146a ; _printf_core + 378
        0x0000140e:    dc04        ..      BGT      0x141a ; _printf_core + 298
        0x00001410:    286f        o(      CMP      r0,#0x6f
        0x00001412:    d070        p.      BEQ      0x14f6 ; _printf_core + 518
        0x00001414:    2870        p(      CMP      r0,#0x70
        0x00001416:    d104        ..      BNE      0x1422 ; _printf_core + 306
        0x00001418:    e0a7        ..      B        0x156a ; _printf_core + 634
        0x0000141a:    2875        u(      CMP      r0,#0x75
        0x0000141c:    d06c        l.      BEQ      0x14f8 ; _printf_core + 520
        0x0000141e:    2878        x(      CMP      r0,#0x78
        0x00001420:    d06b        k.      BEQ      0x14fa ; _printf_core + 522
        0x00001422:    9a14        ..      LDR      r2,[sp,#0x50]
        0x00001424:    9913        ..      LDR      r1,[sp,#0x4c]
        0x00001426:    4790        .G      BLX      r2
        0x00001428:    1c76        v.      ADDS     r6,r6,#1
        0x0000142a:    e062        b.      B        0x14f2 ; _printf_core + 514
        0x0000142c:    0260        `.      LSLS     r0,r4,#9
        0x0000142e:    0f40        @.      LSRS     r0,r0,#29
        0x00001430:    2802        .(      CMP      r0,#2
        0x00001432:    d007        ..      BEQ      0x1444 ; _printf_core + 340
        0x00001434:    2803        .(      CMP      r0,#3
        0x00001436:    d00a        ..      BEQ      0x144e ; _printf_core + 350
        0x00001438:    2804        .(      CMP      r0,#4
        0x0000143a:    6838        8h      LDR      r0,[r7,#0]
        0x0000143c:    d00a        ..      BEQ      0x1454 ; _printf_core + 356
        0x0000143e:    6006        .`      STR      r6,[r0,#0]
        0x00001440:    1d3f        ?.      ADDS     r7,r7,#4
        0x00001442:    e056        V.      B        0x14f2 ; _printf_core + 514
        0x00001444:    6838        8h      LDR      r0,[r7,#0]
        0x00001446:    17f1        ..      ASRS     r1,r6,#31
        0x00001448:    6006        .`      STR      r6,[r0,#0]
        0x0000144a:    6041        A`      STR      r1,[r0,#4]
        0x0000144c:    e7f8        ..      B        0x1440 ; _printf_core + 336
        0x0000144e:    6838        8h      LDR      r0,[r7,#0]
        0x00001450:    8006        ..      STRH     r6,[r0,#0]
        0x00001452:    e7f5        ..      B        0x1440 ; _printf_core + 336
        0x00001454:    7006        .p      STRB     r6,[r0,#0]
        0x00001456:    e7f3        ..      B        0x1440 ; _printf_core + 336
        0x00001458:    7838        8x      LDRB     r0,[r7,#0]
        0x0000145a:    4669        iF      MOV      r1,sp
        0x0000145c:    7408        .t      STRB     r0,[r1,#0x10]
        0x0000145e:    2000        .       MOVS     r0,#0
        0x00001460:    7448        Ht      STRB     r0,[r1,#0x11]
        0x00001462:    a804        ..      ADD      r0,sp,#0x10
        0x00001464:    9003        ..      STR      r0,[sp,#0xc]
        0x00001466:    2001        .       MOVS     r0,#1
        0x00001468:    e003        ..      B        0x1472 ; _printf_core + 386
        0x0000146a:    6838        8h      LDR      r0,[r7,#0]
        0x0000146c:    9003        ..      STR      r0,[sp,#0xc]
        0x0000146e:    2000        .       MOVS     r0,#0
        0x00001470:    43c0        .C      MVNS     r0,r0
        0x00001472:    1d3f        ?.      ADDS     r7,r7,#4
        0x00001474:    0761        a.      LSLS     r1,r4,#29
        0x00001476:    d50f        ..      BPL      0x1498 ; _printf_core + 424
        0x00001478:    2100        .!      MOVS     r1,#0
        0x0000147a:    e001        ..      B        0x1480 ; _printf_core + 400
        0x0000147c:    9901        ..      LDR      r1,[sp,#4]
        0x0000147e:    1c49        I.      ADDS     r1,r1,#1
        0x00001480:    9a02        ..      LDR      r2,[sp,#8]
        0x00001482:    9101        ..      STR      r1,[sp,#4]
        0x00001484:    4291        .B      CMP      r1,r2
        0x00001486:    da13        ..      BGE      0x14b0 ; _printf_core + 448
        0x00001488:    4281        .B      CMP      r1,r0
        0x0000148a:    dbf7        ..      BLT      0x147c ; _printf_core + 396
        0x0000148c:    9a01        ..      LDR      r2,[sp,#4]
        0x0000148e:    9903        ..      LDR      r1,[sp,#0xc]
        0x00001490:    5c89        .\      LDRB     r1,[r1,r2]
        0x00001492:    2900        .)      CMP      r1,#0
        0x00001494:    d1f2        ..      BNE      0x147c ; _printf_core + 396
        0x00001496:    e00b        ..      B        0x14b0 ; _printf_core + 448
        0x00001498:    2100        .!      MOVS     r1,#0
        0x0000149a:    e001        ..      B        0x14a0 ; _printf_core + 432
        0x0000149c:    9901        ..      LDR      r1,[sp,#4]
        0x0000149e:    1c49        I.      ADDS     r1,r1,#1
        0x000014a0:    9101        ..      STR      r1,[sp,#4]
        0x000014a2:    4281        .B      CMP      r1,r0
        0x000014a4:    dbfa        ..      BLT      0x149c ; _printf_core + 428
        0x000014a6:    9a01        ..      LDR      r2,[sp,#4]
        0x000014a8:    9903        ..      LDR      r1,[sp,#0xc]
        0x000014aa:    5c89        .\      LDRB     r1,[r1,r2]
        0x000014ac:    2900        .)      CMP      r1,#0
        0x000014ae:    d1f5        ..      BNE      0x149c ; _printf_core + 428
        0x000014b0:    9901        ..      LDR      r1,[sp,#4]
        0x000014b2:    9800        ..      LDR      r0,[sp,#0]
        0x000014b4:    9a13        ..      LDR      r2,[sp,#0x4c]
        0x000014b6:    1a40        @.      SUBS     r0,r0,r1
        0x000014b8:    9000        ..      STR      r0,[sp,#0]
        0x000014ba:    4621        !F      MOV      r1,r4
        0x000014bc:    9b14        ..      LDR      r3,[sp,#0x50]
        0x000014be:    f000f93b    ..;.    BL       _printf_pre_padding ; 0x1738
        0x000014c2:    9901        ..      LDR      r1,[sp,#4]
        0x000014c4:    1980        ..      ADDS     r0,r0,r6
        0x000014c6:    1846        F.      ADDS     r6,r0,r1
        0x000014c8:    e007        ..      B        0x14da ; _printf_core + 490
        0x000014ca:    9803        ..      LDR      r0,[sp,#0xc]
        0x000014cc:    9903        ..      LDR      r1,[sp,#0xc]
        0x000014ce:    7800        .x      LDRB     r0,[r0,#0]
        0x000014d0:    1c49        I.      ADDS     r1,r1,#1
        0x000014d2:    9103        ..      STR      r1,[sp,#0xc]
        0x000014d4:    9a14        ..      LDR      r2,[sp,#0x50]
        0x000014d6:    9913        ..      LDR      r1,[sp,#0x4c]
        0x000014d8:    4790        .G      BLX      r2
        0x000014da:    9801        ..      LDR      r0,[sp,#4]
        0x000014dc:    1e40        @.      SUBS     r0,r0,#1
        0x000014de:    9001        ..      STR      r0,[sp,#4]
        0x000014e0:    1c40        @.      ADDS     r0,r0,#1
        0x000014e2:    d1f2        ..      BNE      0x14ca ; _printf_core + 474
        0x000014e4:    4621        !F      MOV      r1,r4
        0x000014e6:    9b14        ..      LDR      r3,[sp,#0x50]
        0x000014e8:    9a13        ..      LDR      r2,[sp,#0x4c]
        0x000014ea:    9800        ..      LDR      r0,[sp,#0]
        0x000014ec:    f000f914    ....    BL       _printf_post_padding ; 0x1718
        0x000014f0:    1986        ..      ADDS     r6,r0,r6
        0x000014f2:    1c6d        m.      ADDS     r5,r5,#1
        0x000014f4:    e709        ..      B        0x130a ; _printf_core + 26
        0x000014f6:    e041        A.      B        0x157c ; _printf_core + 652
        0x000014f8:    e033        3.      B        0x1562 ; _printf_core + 626
        0x000014fa:    e034        4.      B        0x1566 ; _printf_core + 630
        0x000014fc:    200a        .       MOVS     r0,#0xa
        0x000014fe:    2100        .!      MOVS     r1,#0
        0x00001500:    9004        ..      STR      r0,[sp,#0x10]
        0x00001502:    9105        ..      STR      r1,[sp,#0x14]
        0x00001504:    0260        `.      LSLS     r0,r4,#9
        0x00001506:    0f41        A.      LSRS     r1,r0,#29
        0x00001508:    2902        .)      CMP      r1,#2
        0x0000150a:    d005        ..      BEQ      0x1518 ; _printf_core + 552
        0x0000150c:    cf01        ..      LDM      r7!,{r0}
        0x0000150e:    17c2        ..      ASRS     r2,r0,#31
        0x00001510:    4694        .F      MOV      r12,r2
        0x00001512:    2903        .)      CMP      r1,#3
        0x00001514:    d005        ..      BEQ      0x1522 ; _printf_core + 562
        0x00001516:    e007        ..      B        0x1528 ; _printf_core + 568
        0x00001518:    1dff        ..      ADDS     r7,r7,#7
        0x0000151a:    08ff        ..      LSRS     r7,r7,#3
        0x0000151c:    00ff        ..      LSLS     r7,r7,#3
        0x0000151e:    cf03        ..      LDM      r7!,{r0,r1}
        0x00001520:    e006        ..      B        0x1530 ; _printf_core + 576
        0x00001522:    b200        ..      SXTH     r0,r0
        0x00001524:    17c2        ..      ASRS     r2,r0,#31
        0x00001526:    4694        .F      MOV      r12,r2
        0x00001528:    2904        .)      CMP      r1,#4
        0x0000152a:    d102        ..      BNE      0x1532 ; _printf_core + 578
        0x0000152c:    b240        @.      SXTB     r0,r0
        0x0000152e:    17c1        ..      ASRS     r1,r0,#31
        0x00001530:    468c        .F      MOV      r12,r1
        0x00001532:    2200        ."      MOVS     r2,#0
        0x00001534:    4661        aF      MOV      r1,r12
        0x00001536:    4594        .E      CMP      r12,r2
        0x00001538:    da06        ..      BGE      0x1548 ; _printf_core + 600
        0x0000153a:    460a        .F      MOV      r2,r1
        0x0000153c:    2100        .!      MOVS     r1,#0
        0x0000153e:    4240        @B      RSBS     r0,r0,#0
        0x00001540:    4191        .A      SBCS     r1,r1,r2
        0x00001542:    468c        .F      MOV      r12,r1
        0x00001544:    212d        -!      MOVS     r1,#0x2d
        0x00001546:    e002        ..      B        0x154e ; _printf_core + 606
        0x00001548:    0521        !.      LSLS     r1,r4,#20
        0x0000154a:    d504        ..      BPL      0x1556 ; _printf_core + 614
        0x0000154c:    212b        +!      MOVS     r1,#0x2b
        0x0000154e:    466a        jF      MOV      r2,sp
        0x00001550:    7611        .v      STRB     r1,[r2,#0x18]
        0x00001552:    2101        .!      MOVS     r1,#1
        0x00001554:    e003        ..      B        0x155e ; _printf_core + 622
        0x00001556:    07e1        ..      LSLS     r1,r4,#31
        0x00001558:    d001        ..      BEQ      0x155e ; _printf_core + 622
        0x0000155a:    2120         !      MOVS     r1,#0x20
        0x0000155c:    e7f7        ..      B        0x154e ; _printf_core + 606
        0x0000155e:    9101        ..      STR      r1,[sp,#4]
        0x00001560:    e054        T.      B        0x160c ; _printf_core + 796
        0x00001562:    200a        .       MOVS     r0,#0xa
        0x00001564:    e00b        ..      B        0x157e ; _printf_core + 654
        0x00001566:    2010        .       MOVS     r0,#0x10
        0x00001568:    e009        ..      B        0x157e ; _printf_core + 654
        0x0000156a:    2010        .       MOVS     r0,#0x10
        0x0000156c:    9004        ..      STR      r0,[sp,#0x10]
        0x0000156e:    2100        .!      MOVS     r1,#0
        0x00001570:    2004        .       MOVS     r0,#4
        0x00001572:    4304        .C      ORRS     r4,r4,r0
        0x00001574:    2008        .       MOVS     r0,#8
        0x00001576:    9105        ..      STR      r1,[sp,#0x14]
        0x00001578:    9002        ..      STR      r0,[sp,#8]
        0x0000157a:    e003        ..      B        0x1584 ; _printf_core + 660
        0x0000157c:    2008        .       MOVS     r0,#8
        0x0000157e:    2100        .!      MOVS     r1,#0
        0x00001580:    9105        ..      STR      r1,[sp,#0x14]
        0x00001582:    9004        ..      STR      r0,[sp,#0x10]
        0x00001584:    0260        `.      LSLS     r0,r4,#9
        0x00001586:    0f41        A.      LSRS     r1,r0,#29
        0x00001588:    2902        .)      CMP      r1,#2
        0x0000158a:    d005        ..      BEQ      0x1598 ; _printf_core + 680
        0x0000158c:    cf01        ..      LDM      r7!,{r0}
        0x0000158e:    2200        ."      MOVS     r2,#0
        0x00001590:    4694        .F      MOV      r12,r2
        0x00001592:    2903        .)      CMP      r1,#3
        0x00001594:    d006        ..      BEQ      0x15a4 ; _printf_core + 692
        0x00001596:    e006        ..      B        0x15a6 ; _printf_core + 694
        0x00001598:    1dff        ..      ADDS     r7,r7,#7
        0x0000159a:    08ff        ..      LSRS     r7,r7,#3
        0x0000159c:    00ff        ..      LSLS     r7,r7,#3
        0x0000159e:    cf03        ..      LDM      r7!,{r0,r1}
        0x000015a0:    468c        .F      MOV      r12,r1
        0x000015a2:    e003        ..      B        0x15ac ; _printf_core + 700
        0x000015a4:    b280        ..      UXTH     r0,r0
        0x000015a6:    2904        .)      CMP      r1,#4
        0x000015a8:    d100        ..      BNE      0x15ac ; _printf_core + 700
        0x000015aa:    b2c0        ..      UXTB     r0,r0
        0x000015ac:    2100        .!      MOVS     r1,#0
        0x000015ae:    9101        ..      STR      r1,[sp,#4]
        0x000015b0:    0721        !.      LSLS     r1,r4,#28
        0x000015b2:    d52b        +.      BPL      0x160c ; _printf_core + 796
        0x000015b4:    9903        ..      LDR      r1,[sp,#0xc]
        0x000015b6:    2970        p)      CMP      r1,#0x70
        0x000015b8:    d006        ..      BEQ      0x15c8 ; _printf_core + 728
        0x000015ba:    9a04        ..      LDR      r2,[sp,#0x10]
        0x000015bc:    2110        .!      MOVS     r1,#0x10
        0x000015be:    9b05        ..      LDR      r3,[sp,#0x14]
        0x000015c0:    404a        J@      EORS     r2,r2,r1
        0x000015c2:    431a        .C      ORRS     r2,r2,r3
        0x000015c4:    d005        ..      BEQ      0x15d2 ; _printf_core + 738
        0x000015c6:    e00e        ..      B        0x15e6 ; _printf_core + 758
        0x000015c8:    2140        @!      MOVS     r1,#0x40
        0x000015ca:    466a        jF      MOV      r2,sp
        0x000015cc:    7611        .v      STRB     r1,[r2,#0x18]
        0x000015ce:    2101        .!      MOVS     r1,#1
        0x000015d0:    e008        ..      B        0x15e4 ; _printf_core + 756
        0x000015d2:    4661        aF      MOV      r1,r12
        0x000015d4:    4301        .C      ORRS     r1,r1,r0
        0x000015d6:    d006        ..      BEQ      0x15e6 ; _printf_core + 758
        0x000015d8:    2130        0!      MOVS     r1,#0x30
        0x000015da:    466a        jF      MOV      r2,sp
        0x000015dc:    7611        .v      STRB     r1,[r2,#0x18]
        0x000015de:    9903        ..      LDR      r1,[sp,#0xc]
        0x000015e0:    7651        Qv      STRB     r1,[r2,#0x19]
        0x000015e2:    2102        .!      MOVS     r1,#2
        0x000015e4:    9101        ..      STR      r1,[sp,#4]
        0x000015e6:    9a04        ..      LDR      r2,[sp,#0x10]
        0x000015e8:    2108        .!      MOVS     r1,#8
        0x000015ea:    9b05        ..      LDR      r3,[sp,#0x14]
        0x000015ec:    404a        J@      EORS     r2,r2,r1
        0x000015ee:    431a        .C      ORRS     r2,r2,r3
        0x000015f0:    d10c        ..      BNE      0x160c ; _printf_core + 796
        0x000015f2:    4661        aF      MOV      r1,r12
        0x000015f4:    4301        .C      ORRS     r1,r1,r0
        0x000015f6:    d101        ..      BNE      0x15fc ; _printf_core + 780
        0x000015f8:    0761        a.      LSLS     r1,r4,#29
        0x000015fa:    d507        ..      BPL      0x160c ; _printf_core + 796
        0x000015fc:    2130        0!      MOVS     r1,#0x30
        0x000015fe:    466a        jF      MOV      r2,sp
        0x00001600:    7611        .v      STRB     r1,[r2,#0x18]
        0x00001602:    2101        .!      MOVS     r1,#1
        0x00001604:    9101        ..      STR      r1,[sp,#4]
        0x00001606:    9902        ..      LDR      r1,[sp,#8]
        0x00001608:    1e49        I.      SUBS     r1,r1,#1
        0x0000160a:    9102        ..      STR      r1,[sp,#8]
        0x0000160c:    9903        ..      LDR      r1,[sp,#0xc]
        0x0000160e:    2958        X)      CMP      r1,#0x58
        0x00001610:    d004        ..      BEQ      0x161c ; _printf_core + 812
        0x00001612:    a137        7.      ADR      r1,{pc}+0xde ; 0x16f0
        0x00001614:    9103        ..      STR      r1,[sp,#0xc]
        0x00001616:    a90f        ..      ADD      r1,sp,#0x3c
        0x00001618:    910f        ..      STR      r1,[sp,#0x3c]
        0x0000161a:    e00d        ..      B        0x1638 ; _printf_core + 840
        0x0000161c:    a139        9.      ADR      r1,{pc}+0xe8 ; 0x1704
        0x0000161e:    e7f9        ..      B        0x1614 ; _printf_core + 804
        0x00001620:    4661        aF      MOV      r1,r12
        0x00001622:    9b05        ..      LDR      r3,[sp,#0x14]
        0x00001624:    9a04        ..      LDR      r2,[sp,#0x10]
        0x00001626:    f7fefdaa    ....    BL       __aeabi_uldivmod ; 0x17e
        0x0000162a:    9b03        ..      LDR      r3,[sp,#0xc]
        0x0000162c:    468c        .F      MOV      r12,r1
        0x0000162e:    5c9b        .\      LDRB     r3,[r3,r2]
        0x00001630:    9a0f        ..      LDR      r2,[sp,#0x3c]
        0x00001632:    1e52        R.      SUBS     r2,r2,#1
        0x00001634:    920f        ..      STR      r2,[sp,#0x3c]
        0x00001636:    7013        .p      STRB     r3,[r2,#0]
        0x00001638:    4661        aF      MOV      r1,r12
        0x0000163a:    4301        .C      ORRS     r1,r1,r0
        0x0000163c:    d1f0        ..      BNE      0x1620 ; _printf_core + 816
        0x0000163e:    980f        ..      LDR      r0,[sp,#0x3c]
        0x00001640:    a907        ..      ADD      r1,sp,#0x1c
        0x00001642:    1a08        ..      SUBS     r0,r1,r0
        0x00001644:    3020         0      ADDS     r0,r0,#0x20
        0x00001646:    9003        ..      STR      r0,[sp,#0xc]
        0x00001648:    0760        `.      LSLS     r0,r4,#29
        0x0000164a:    d504        ..      BPL      0x1656 ; _printf_core + 870
        0x0000164c:    2001        .       MOVS     r0,#1
        0x0000164e:    0400        ..      LSLS     r0,r0,#16
        0x00001650:    4384        .C      BICS     r4,r4,r0
        0x00001652:    9802        ..      LDR      r0,[sp,#8]
        0x00001654:    e001        ..      B        0x165a ; _printf_core + 874
        0x00001656:    2001        .       MOVS     r0,#1
        0x00001658:    9002        ..      STR      r0,[sp,#8]
        0x0000165a:    9903        ..      LDR      r1,[sp,#0xc]
        0x0000165c:    4288        .B      CMP      r0,r1
        0x0000165e:    dd01        ..      BLE      0x1664 ; _printf_core + 884
        0x00001660:    1a40        @.      SUBS     r0,r0,r1
        0x00001662:    e000        ..      B        0x1666 ; _printf_core + 886
        0x00001664:    2000        .       MOVS     r0,#0
        0x00001666:    1841        A.      ADDS     r1,r0,r1
        0x00001668:    9002        ..      STR      r0,[sp,#8]
        0x0000166a:    9801        ..      LDR      r0,[sp,#4]
        0x0000166c:    1809        ..      ADDS     r1,r1,r0
        0x0000166e:    9800        ..      LDR      r0,[sp,#0]
        0x00001670:    1a40        @.      SUBS     r0,r0,r1
        0x00001672:    9000        ..      STR      r0,[sp,#0]
        0x00001674:    03e0        ..      LSLS     r0,r4,#15
        0x00001676:    d406        ..      BMI      0x1686 ; _printf_core + 918
        0x00001678:    4621        !F      MOV      r1,r4
        0x0000167a:    9b14        ..      LDR      r3,[sp,#0x50]
        0x0000167c:    9a13        ..      LDR      r2,[sp,#0x4c]
        0x0000167e:    9800        ..      LDR      r0,[sp,#0]
        0x00001680:    f000f85a    ..Z.    BL       _printf_pre_padding ; 0x1738
        0x00001684:    1986        ..      ADDS     r6,r0,r6
        0x00001686:    2000        .       MOVS     r0,#0
        0x00001688:    9004        ..      STR      r0,[sp,#0x10]
        0x0000168a:    e008        ..      B        0x169e ; _printf_core + 942
        0x0000168c:    a906        ..      ADD      r1,sp,#0x18
        0x0000168e:    5c08        .\      LDRB     r0,[r1,r0]
        0x00001690:    9a14        ..      LDR      r2,[sp,#0x50]
        0x00001692:    9913        ..      LDR      r1,[sp,#0x4c]
        0x00001694:    4790        .G      BLX      r2
        0x00001696:    9804        ..      LDR      r0,[sp,#0x10]
        0x00001698:    1c40        @.      ADDS     r0,r0,#1
        0x0000169a:    1c76        v.      ADDS     r6,r6,#1
        0x0000169c:    9004        ..      STR      r0,[sp,#0x10]
        0x0000169e:    9901        ..      LDR      r1,[sp,#4]
        0x000016a0:    4288        .B      CMP      r0,r1
        0x000016a2:    dbf3        ..      BLT      0x168c ; _printf_core + 924
        0x000016a4:    03e0        ..      LSLS     r0,r4,#15
        0x000016a6:    d50c        ..      BPL      0x16c2 ; _printf_core + 978
        0x000016a8:    4621        !F      MOV      r1,r4
        0x000016aa:    9b14        ..      LDR      r3,[sp,#0x50]
        0x000016ac:    9a13        ..      LDR      r2,[sp,#0x4c]
        0x000016ae:    9800        ..      LDR      r0,[sp,#0]
        0x000016b0:    f000f842    ..B.    BL       _printf_pre_padding ; 0x1738
        0x000016b4:    1986        ..      ADDS     r6,r0,r6
        0x000016b6:    e004        ..      B        0x16c2 ; _printf_core + 978
        0x000016b8:    9a14        ..      LDR      r2,[sp,#0x50]
        0x000016ba:    2030        0       MOVS     r0,#0x30
        0x000016bc:    9913        ..      LDR      r1,[sp,#0x4c]
        0x000016be:    4790        .G      BLX      r2
        0x000016c0:    1c76        v.      ADDS     r6,r6,#1
        0x000016c2:    9902        ..      LDR      r1,[sp,#8]
        0x000016c4:    1e48        H.      SUBS     r0,r1,#1
        0x000016c6:    9002        ..      STR      r0,[sp,#8]
        0x000016c8:    2900        .)      CMP      r1,#0
        0x000016ca:    dcf5        ..      BGT      0x16b8 ; _printf_core + 968
        0x000016cc:    e008        ..      B        0x16e0 ; _printf_core + 1008
        0x000016ce:    980f        ..      LDR      r0,[sp,#0x3c]
        0x000016d0:    990f        ..      LDR      r1,[sp,#0x3c]
        0x000016d2:    7800        .x      LDRB     r0,[r0,#0]
        0x000016d4:    1c49        I.      ADDS     r1,r1,#1
        0x000016d6:    910f        ..      STR      r1,[sp,#0x3c]
        0x000016d8:    9a14        ..      LDR      r2,[sp,#0x50]
        0x000016da:    9913        ..      LDR      r1,[sp,#0x4c]
        0x000016dc:    4790        .G      BLX      r2
        0x000016de:    1c76        v.      ADDS     r6,r6,#1
        0x000016e0:    9903        ..      LDR      r1,[sp,#0xc]
        0x000016e2:    1e48        H.      SUBS     r0,r1,#1
        0x000016e4:    9003        ..      STR      r0,[sp,#0xc]
        0x000016e6:    2900        .)      CMP      r1,#0
        0x000016e8:    dcf1        ..      BGT      0x16ce ; _printf_core + 990
        0x000016ea:    e6fb        ..      B        0x14e4 ; _printf_core + 500
    $d
        0x000016ec:    00012809    .(..    DCD    75785
        0x000016f0:    33323130    0123    DCD    858927408
        0x000016f4:    37363534    4567    DCD    926299444
        0x000016f8:    62613938    89ab    DCD    1650538808
        0x000016fc:    66656463    cdef    DCD    1717920867
        0x00001700:    00000000    ....    DCD    0
        0x00001704:    33323130    0123    DCD    858927408
        0x00001708:    37363534    4567    DCD    926299444
        0x0000170c:    42413938    89AB    DCD    1111570744
        0x00001710:    46454443    CDEF    DCD    1178944579
        0x00001714:    00000000    ....    DCD    0
    $t
    i._printf_post_padding
    _printf_post_padding
        0x00001718:    b5f8        ..      PUSH     {r3-r7,lr}
        0x0000171a:    4604        .F      MOV      r4,r0
        0x0000171c:    2500        .%      MOVS     r5,#0
        0x0000171e:    461e        .F      MOV      r6,r3
        0x00001720:    4617        .F      MOV      r7,r2
        0x00001722:    0488        ..      LSLS     r0,r1,#18
        0x00001724:    d404        ..      BMI      0x1730 ; _printf_post_padding + 24
        0x00001726:    e005        ..      B        0x1734 ; _printf_post_padding + 28
        0x00001728:    4639        9F      MOV      r1,r7
        0x0000172a:    2020                MOVS     r0,#0x20
        0x0000172c:    47b0        .G      BLX      r6
        0x0000172e:    1c6d        m.      ADDS     r5,r5,#1
        0x00001730:    1e64        d.      SUBS     r4,r4,#1
        0x00001732:    d5f9        ..      BPL      0x1728 ; _printf_post_padding + 16
        0x00001734:    4628        (F      MOV      r0,r5
        0x00001736:    bdf8        ..      POP      {r3-r7,pc}
    i._printf_pre_padding
    _printf_pre_padding
        0x00001738:    b5ff        ..      PUSH     {r0-r7,lr}
        0x0000173a:    4604        .F      MOV      r4,r0
        0x0000173c:    2500        .%      MOVS     r5,#0
        0x0000173e:    b081        ..      SUB      sp,sp,#4
        0x00001740:    461e        .F      MOV      r6,r3
        0x00001742:    03c8        ..      LSLS     r0,r1,#15
        0x00001744:    d501        ..      BPL      0x174a ; _printf_pre_padding + 18
        0x00001746:    2730        0'      MOVS     r7,#0x30
        0x00001748:    e000        ..      B        0x174c ; _printf_pre_padding + 20
        0x0000174a:    2720         '      MOVS     r7,#0x20
        0x0000174c:    0488        ..      LSLS     r0,r1,#18
        0x0000174e:    d504        ..      BPL      0x175a ; _printf_pre_padding + 34
        0x00001750:    e005        ..      B        0x175e ; _printf_pre_padding + 38
        0x00001752:    4638        8F      MOV      r0,r7
        0x00001754:    9903        ..      LDR      r1,[sp,#0xc]
        0x00001756:    47b0        .G      BLX      r6
        0x00001758:    1c6d        m.      ADDS     r5,r5,#1
        0x0000175a:    1e64        d.      SUBS     r4,r4,#1
        0x0000175c:    d5f9        ..      BPL      0x1752 ; _printf_pre_padding + 26
        0x0000175e:    4628        (F      MOV      r0,r5
        0x00001760:    b005        ..      ADD      sp,sp,#0x14
        0x00001762:    bdf0        ..      POP      {r4-r7,pc}
    i._sputc
    _sputc
        0x00001764:    680a        .h      LDR      r2,[r1,#0]
        0x00001766:    1c53        S.      ADDS     r3,r2,#1
        0x00001768:    600b        .`      STR      r3,[r1,#0]
        0x0000176a:    7010        .p      STRB     r0,[r2,#0]
        0x0000176c:    4770        pG      BX       lr
        0x0000176e:    0000        ..      MOVS     r0,r0
    i.clear_LCD
    clear_LCD
        0x00001770:    b530        0.      PUSH     {r4,r5,lr}
        0x00001772:    2100        .!      MOVS     r1,#0
        0x00001774:    4d12        .M      LDR      r5,[pc,#72] ; [0x17c0] = 0x200009ec
        0x00001776:    460a        .F      MOV      r2,r1
        0x00001778:    17cb        ..      ASRS     r3,r1,#31
        0x0000177a:    0f5b        [.      LSRS     r3,r3,#29
        0x0000177c:    185b        [.      ADDS     r3,r3,r1
        0x0000177e:    2000        .       MOVS     r0,#0
        0x00001780:    10db        ..      ASRS     r3,r3,#3
        0x00001782:    01db        ..      LSLS     r3,r3,#7
        0x00001784:    181c        ..      ADDS     r4,r3,r0
        0x00001786:    1964        d.      ADDS     r4,r4,r5
        0x00001788:    1c40        @.      ADDS     r0,r0,#1
        0x0000178a:    b200        ..      SXTH     r0,r0
        0x0000178c:    7022        "p      STRB     r2,[r4,#0]
        0x0000178e:    2880        .(      CMP      r0,#0x80
        0x00001790:    dbf8        ..      BLT      0x1784 ; clear_LCD + 20
        0x00001792:    1c49        I.      ADDS     r1,r1,#1
        0x00001794:    b209        ..      SXTH     r1,r1
        0x00001796:    2940        @)      CMP      r1,#0x40
        0x00001798:    dbee        ..      BLT      0x1778 ; clear_LCD + 8
        0x0000179a:    2100        .!      MOVS     r1,#0
        0x0000179c:    4608        .F      MOV      r0,r1
        0x0000179e:    f000f90d    ....    BL       lcdSetAddr ; 0x19bc
        0x000017a2:    2400        .$      MOVS     r4,#0
        0x000017a4:    2521        !%      MOVS     r5,#0x21
        0x000017a6:    016d        m.      LSLS     r5,r5,#5
        0x000017a8:    2000        .       MOVS     r0,#0
        0x000017aa:    f000f953    ..S.    BL       lcdWriteData ; 0x1a54
        0x000017ae:    1c64        d.      ADDS     r4,r4,#1
        0x000017b0:    b224        $.      SXTH     r4,r4
        0x000017b2:    42ac        .B      CMP      r4,r5
        0x000017b4:    dbf8        ..      BLT      0x17a8 ; clear_LCD + 56
        0x000017b6:    200f        .       MOVS     r0,#0xf
        0x000017b8:    f000f94c    ..L.    BL       lcdWriteData ; 0x1a54
        0x000017bc:    bd30        0.      POP      {r4,r5,pc}
    $d
        0x000017be:    0000        ..      DCW    0
        0x000017c0:    200009ec    ...     DCD    536873452
    $t
    i.clear_cursor
    clear_cursor
        0x000017c4:    b510        ..      PUSH     {r4,lr}
        0x000017c6:    4c07        .L      LDR      r4,[pc,#28] ; [0x17e4] = 0x200007fc
        0x000017c8:    7b20         {      LDRB     r0,[r4,#0xc]
        0x000017ca:    2800        .(      CMP      r0,#0
        0x000017cc:    d008        ..      BEQ      0x17e0 ; clear_cursor + 28
        0x000017ce:    7a20         z      LDRB     r0,[r4,#8]
        0x000017d0:    0101        ..      LSLS     r1,r0,#4
        0x000017d2:    7a60        `z      LDRB     r0,[r4,#9]
        0x000017d4:    2220         "      MOVS     r2,#0x20
        0x000017d6:    00c0        ..      LSLS     r0,r0,#3
        0x000017d8:    f000fbd6    ....    BL       printC ; 0x1f88
        0x000017dc:    2000        .       MOVS     r0,#0
        0x000017de:    72a0        .r      STRB     r0,[r4,#0xa]
        0x000017e0:    bd10        ..      POP      {r4,pc}
    $d
        0x000017e2:    0000        ..      DCW    0
        0x000017e4:    200007fc    ...     DCD    536872956
    $t
    i.clear_name_block
    clear_name_block
        0x000017e8:    b570        p.      PUSH     {r4-r6,lr}
        0x000017ea:    4c26        &L      LDR      r4,[pc,#152] ; [0x1884] = 0x200007fc
        0x000017ec:    7860        `x      LDRB     r0,[r4,#1]
        0x000017ee:    2815        .(      CMP      r0,#0x15
        0x000017f0:    d146        F.      BNE      0x1880 ; clear_name_block + 152
        0x000017f2:    7a20         z      LDRB     r0,[r4,#8]
        0x000017f4:    4d24        $M      LDR      r5,[pc,#144] ; [0x1888] = 0x20000996
        0x000017f6:    2802        .(      CMP      r0,#2
        0x000017f8:    d002        ..      BEQ      0x1800 ; clear_name_block + 24
        0x000017fa:    7a60        `z      LDRB     r0,[r4,#9]
        0x000017fc:    280b        .(      CMP      r0,#0xb
        0x000017fe:    d20a        ..      BCS      0x1816 ; clear_name_block + 46
        0x00001800:    7a20         z      LDRB     r0,[r4,#8]
        0x00001802:    0101        ..      LSLS     r1,r0,#4
        0x00001804:    1840        @.      ADDS     r0,r0,r1
        0x00001806:    7a61        az      LDRB     r1,[r4,#9]
        0x00001808:    1940        @.      ADDS     r0,r0,r5
        0x0000180a:    5c42        B\      LDRB     r2,[r0,r1]
        0x0000180c:    7a20         z      LDRB     r0,[r4,#8]
        0x0000180e:    0101        ..      LSLS     r1,r0,#4
        0x00001810:    7a60        `z      LDRB     r0,[r4,#9]
        0x00001812:    00c0        ..      LSLS     r0,r0,#3
        0x00001814:    e030        0.      B        0x1878 ; clear_name_block + 144
        0x00001816:    7a60        `z      LDRB     r0,[r4,#9]
        0x00001818:    280e        .(      CMP      r0,#0xe
        0x0000181a:    7a20         z      LDRB     r0,[r4,#8]
        0x0000181c:    d21b        ..      BCS      0x1856 ; clear_name_block + 110
        0x0000181e:    0101        ..      LSLS     r1,r0,#4
        0x00001820:    1840        @.      ADDS     r0,r0,r1
        0x00001822:    1940        @.      ADDS     r0,r0,r5
        0x00001824:    7ac2        .z      LDRB     r2,[r0,#0xb]
        0x00001826:    7a20         z      LDRB     r0,[r4,#8]
        0x00001828:    0101        ..      LSLS     r1,r0,#4
        0x0000182a:    2058        X       MOVS     r0,#0x58
        0x0000182c:    f000fbac    ....    BL       printC ; 0x1f88
        0x00001830:    7a20         z      LDRB     r0,[r4,#8]
        0x00001832:    0101        ..      LSLS     r1,r0,#4
        0x00001834:    1840        @.      ADDS     r0,r0,r1
        0x00001836:    1940        @.      ADDS     r0,r0,r5
        0x00001838:    7b02        .{      LDRB     r2,[r0,#0xc]
        0x0000183a:    7a20         z      LDRB     r0,[r4,#8]
        0x0000183c:    0101        ..      LSLS     r1,r0,#4
        0x0000183e:    2060        `       MOVS     r0,#0x60
        0x00001840:    f000fba2    ....    BL       printC ; 0x1f88
        0x00001844:    7a20         z      LDRB     r0,[r4,#8]
        0x00001846:    0101        ..      LSLS     r1,r0,#4
        0x00001848:    1840        @.      ADDS     r0,r0,r1
        0x0000184a:    1940        @.      ADDS     r0,r0,r5
        0x0000184c:    7b42        B{      LDRB     r2,[r0,#0xd]
        0x0000184e:    7a20         z      LDRB     r0,[r4,#8]
        0x00001850:    0101        ..      LSLS     r1,r0,#4
        0x00001852:    2068        h       MOVS     r0,#0x68
        0x00001854:    e010        ..      B        0x1878 ; clear_name_block + 144
        0x00001856:    0101        ..      LSLS     r1,r0,#4
        0x00001858:    1840        @.      ADDS     r0,r0,r1
        0x0000185a:    1940        @.      ADDS     r0,r0,r5
        0x0000185c:    7b82        .{      LDRB     r2,[r0,#0xe]
        0x0000185e:    7a20         z      LDRB     r0,[r4,#8]
        0x00001860:    0101        ..      LSLS     r1,r0,#4
        0x00001862:    2070        p       MOVS     r0,#0x70
        0x00001864:    f000fb90    ....    BL       printC ; 0x1f88
        0x00001868:    7a20         z      LDRB     r0,[r4,#8]
        0x0000186a:    0101        ..      LSLS     r1,r0,#4
        0x0000186c:    1840        @.      ADDS     r0,r0,r1
        0x0000186e:    1940        @.      ADDS     r0,r0,r5
        0x00001870:    7bc2        .{      LDRB     r2,[r0,#0xf]
        0x00001872:    7a20         z      LDRB     r0,[r4,#8]
        0x00001874:    0101        ..      LSLS     r1,r0,#4
        0x00001876:    2078        x       MOVS     r0,#0x78
        0x00001878:    f000fb86    ....    BL       printC ; 0x1f88
        0x0000187c:    2001        .       MOVS     r0,#1
        0x0000187e:    7360        `s      STRB     r0,[r4,#0xd]
        0x00001880:    bd70        p.      POP      {r4-r6,pc}
    $d
        0x00001882:    0000        ..      DCW    0
        0x00001884:    200007fc    ...     DCD    536872956
        0x00001888:    20000996    ...     DCD    536873366
    $t
    i.display_cursor
    display_cursor
        0x0000188c:    b510        ..      PUSH     {r4,lr}
        0x0000188e:    4c0e        .L      LDR      r4,[pc,#56] ; [0x18c8] = 0x200007fc
        0x00001890:    7ae0        .z      LDRB     r0,[r4,#0xb]
        0x00001892:    2800        .(      CMP      r0,#0
        0x00001894:    d016        ..      BEQ      0x18c4 ; display_cursor + 56
        0x00001896:    7b60        `{      LDRB     r0,[r4,#0xd]
        0x00001898:    2800        .(      CMP      r0,#0
        0x0000189a:    d013        ..      BEQ      0x18c4 ; display_cursor + 56
        0x0000189c:    7aa0        .z      LDRB     r0,[r4,#0xa]
        0x0000189e:    2800        .(      CMP      r0,#0
        0x000018a0:    d005        ..      BEQ      0x18ae ; display_cursor + 34
        0x000018a2:    2000        .       MOVS     r0,#0
        0x000018a4:    72a0        .r      STRB     r0,[r4,#0xa]
        0x000018a6:    2800        .(      CMP      r0,#0
        0x000018a8:    d003        ..      BEQ      0x18b2 ; display_cursor + 38
        0x000018aa:    223e        >"      MOVS     r2,#0x3e
        0x000018ac:    e002        ..      B        0x18b4 ; display_cursor + 40
        0x000018ae:    2001        .       MOVS     r0,#1
        0x000018b0:    e7f8        ..      B        0x18a4 ; display_cursor + 24
        0x000018b2:    2220         "      MOVS     r2,#0x20
        0x000018b4:    7a20         z      LDRB     r0,[r4,#8]
        0x000018b6:    0101        ..      LSLS     r1,r0,#4
        0x000018b8:    7a60        `z      LDRB     r0,[r4,#9]
        0x000018ba:    00c0        ..      LSLS     r0,r0,#3
        0x000018bc:    f000fb64    ..d.    BL       printC ; 0x1f88
        0x000018c0:    2000        .       MOVS     r0,#0
        0x000018c2:    72e0        .r      STRB     r0,[r4,#0xb]
        0x000018c4:    bd10        ..      POP      {r4,pc}
    $d
        0x000018c6:    0000        ..      DCW    0
        0x000018c8:    200007fc    ...     DCD    536872956
    $t
    i.display_name_block
    display_name_block
        0x000018cc:    b570        p.      PUSH     {r4-r6,lr}
        0x000018ce:    4c26        &L      LDR      r4,[pc,#152] ; [0x1968] = 0x200007fc
        0x000018d0:    7860        `x      LDRB     r0,[r4,#1]
        0x000018d2:    2815        .(      CMP      r0,#0x15
        0x000018d4:    d147        G.      BNE      0x1966 ; display_name_block + 154
        0x000018d6:    7b60        `{      LDRB     r0,[r4,#0xd]
        0x000018d8:    2800        .(      CMP      r0,#0
        0x000018da:    d044        D.      BEQ      0x1966 ; display_name_block + 154
        0x000018dc:    7a20         z      LDRB     r0,[r4,#8]
        0x000018de:    4d23        #M      LDR      r5,[pc,#140] ; [0x196c] = 0x20000996
        0x000018e0:    2802        .(      CMP      r0,#2
        0x000018e2:    d002        ..      BEQ      0x18ea ; display_name_block + 30
        0x000018e4:    7a60        `z      LDRB     r0,[r4,#9]
        0x000018e6:    280b        .(      CMP      r0,#0xb
        0x000018e8:    d20a        ..      BCS      0x1900 ; display_name_block + 52
        0x000018ea:    7a20         z      LDRB     r0,[r4,#8]
        0x000018ec:    0101        ..      LSLS     r1,r0,#4
        0x000018ee:    1840        @.      ADDS     r0,r0,r1
        0x000018f0:    7a61        az      LDRB     r1,[r4,#9]
        0x000018f2:    1940        @.      ADDS     r0,r0,r5
        0x000018f4:    5c42        B\      LDRB     r2,[r0,r1]
        0x000018f6:    7a20         z      LDRB     r0,[r4,#8]
        0x000018f8:    0101        ..      LSLS     r1,r0,#4
        0x000018fa:    7a60        `z      LDRB     r0,[r4,#9]
        0x000018fc:    00c0        ..      LSLS     r0,r0,#3
        0x000018fe:    e030        0.      B        0x1962 ; display_name_block + 150
        0x00001900:    7a60        `z      LDRB     r0,[r4,#9]
        0x00001902:    280e        .(      CMP      r0,#0xe
        0x00001904:    7a20         z      LDRB     r0,[r4,#8]
        0x00001906:    d21b        ..      BCS      0x1940 ; display_name_block + 116
        0x00001908:    0101        ..      LSLS     r1,r0,#4
        0x0000190a:    1840        @.      ADDS     r0,r0,r1
        0x0000190c:    1940        @.      ADDS     r0,r0,r5
        0x0000190e:    7ac2        .z      LDRB     r2,[r0,#0xb]
        0x00001910:    7a20         z      LDRB     r0,[r4,#8]
        0x00001912:    0101        ..      LSLS     r1,r0,#4
        0x00001914:    2058        X       MOVS     r0,#0x58
        0x00001916:    f000fb65    ..e.    BL       printInverseC ; 0x1fe4
        0x0000191a:    7a20         z      LDRB     r0,[r4,#8]
        0x0000191c:    0101        ..      LSLS     r1,r0,#4
        0x0000191e:    1840        @.      ADDS     r0,r0,r1
        0x00001920:    1940        @.      ADDS     r0,r0,r5
        0x00001922:    7b02        .{      LDRB     r2,[r0,#0xc]
        0x00001924:    7a20         z      LDRB     r0,[r4,#8]
        0x00001926:    0101        ..      LSLS     r1,r0,#4
        0x00001928:    2060        `       MOVS     r0,#0x60
        0x0000192a:    f000fb5b    ..[.    BL       printInverseC ; 0x1fe4
        0x0000192e:    7a20         z      LDRB     r0,[r4,#8]
        0x00001930:    0101        ..      LSLS     r1,r0,#4
        0x00001932:    1840        @.      ADDS     r0,r0,r1
        0x00001934:    1940        @.      ADDS     r0,r0,r5
        0x00001936:    7b42        B{      LDRB     r2,[r0,#0xd]
        0x00001938:    7a20         z      LDRB     r0,[r4,#8]
        0x0000193a:    0101        ..      LSLS     r1,r0,#4
        0x0000193c:    2068        h       MOVS     r0,#0x68
        0x0000193e:    e010        ..      B        0x1962 ; display_name_block + 150
        0x00001940:    0101        ..      LSLS     r1,r0,#4
        0x00001942:    1840        @.      ADDS     r0,r0,r1
        0x00001944:    1940        @.      ADDS     r0,r0,r5
        0x00001946:    7b82        .{      LDRB     r2,[r0,#0xe]
        0x00001948:    7a20         z      LDRB     r0,[r4,#8]
        0x0000194a:    0101        ..      LSLS     r1,r0,#4
        0x0000194c:    2070        p       MOVS     r0,#0x70
        0x0000194e:    f000fb49    ..I.    BL       printInverseC ; 0x1fe4
        0x00001952:    7a20         z      LDRB     r0,[r4,#8]
        0x00001954:    0101        ..      LSLS     r1,r0,#4
        0x00001956:    1840        @.      ADDS     r0,r0,r1
        0x00001958:    1940        @.      ADDS     r0,r0,r5
        0x0000195a:    7bc2        .{      LDRB     r2,[r0,#0xf]
        0x0000195c:    7a20         z      LDRB     r0,[r4,#8]
        0x0000195e:    0101        ..      LSLS     r1,r0,#4
        0x00001960:    2078        x       MOVS     r0,#0x78
        0x00001962:    f000fb3f    ..?.    BL       printInverseC ; 0x1fe4
        0x00001966:    bd70        p.      POP      {r4-r6,pc}
    $d
        0x00001968:    200007fc    ...     DCD    536872956
        0x0000196c:    20000996    ...     DCD    536873366
    $t
    i.init_LCD
    init_LCD
        0x00001970:    b510        ..      PUSH     {r4,lr}
        0x00001972:    f000f811    ....    BL       init_SPI3 ; 0x1998
        0x00001976:    20eb        .       MOVS     r0,#0xeb
        0x00001978:    f000f858    ..X.    BL       lcdWriteCommand ; 0x1a2c
        0x0000197c:    2081        .       MOVS     r0,#0x81
        0x0000197e:    f000f855    ..U.    BL       lcdWriteCommand ; 0x1a2c
        0x00001982:    20a0        .       MOVS     r0,#0xa0
        0x00001984:    f000f852    ..R.    BL       lcdWriteCommand ; 0x1a2c
        0x00001988:    20c0        .       MOVS     r0,#0xc0
        0x0000198a:    f000f84f    ..O.    BL       lcdWriteCommand ; 0x1a2c
        0x0000198e:    20af        .       MOVS     r0,#0xaf
        0x00001990:    f000f84c    ..L.    BL       lcdWriteCommand ; 0x1a2c
        0x00001994:    bd10        ..      POP      {r4,pc}
        0x00001996:    0000        ..      MOVS     r0,r0
    i.init_SPI3
    init_SPI3
        0x00001998:    b538        8.      PUSH     {r3-r5,lr}
        0x0000199a:    4806        .H      LDR      r0,[pc,#24] ; [0x19b4] = 0xf4240
        0x0000199c:    4c06        .L      LDR      r4,[pc,#24] ; [0x19b8] = 0x40134000
        0x0000199e:    9000        ..      STR      r0,[sp,#0]
        0x000019a0:    2309        .#      MOVS     r3,#9
        0x000019a2:    2204        ."      MOVS     r2,#4
        0x000019a4:    2100        .!      MOVS     r1,#0
        0x000019a6:    4620         F      MOV      r0,r4
        0x000019a8:    f7fff97a    ..z.    BL       SPI_Open ; 0xca0
        0x000019ac:    4620         F      MOV      r0,r4
        0x000019ae:    f7fff971    ..q.    BL       SPI_DisableAutoSS ; 0xc94
        0x000019b2:    bd38        8.      POP      {r3-r5,pc}
    $d
        0x000019b4:    000f4240    @B..    DCD    1000000
        0x000019b8:    40134000    .@.@    DCD    1075003392
    $t
    i.lcdSetAddr
    lcdSetAddr
        0x000019bc:    b510        ..      PUSH     {r4,lr}
        0x000019be:    4a1a        .J      LDR      r2,[pc,#104] ; [0x1a28] = 0x40134000
        0x000019c0:    6894        .h      LDR      r4,[r2,#8]
        0x000019c2:    230d        .#      MOVS     r3,#0xd
        0x000019c4:    439c        .C      BICS     r4,r4,r3
        0x000019c6:    1c64        d.      ADDS     r4,r4,#1
        0x000019c8:    6094        .`      STR      r4,[r2,#8]
        0x000019ca:    24b0        .$      MOVS     r4,#0xb0
        0x000019cc:    4320         C      ORRS     r0,r0,r4
        0x000019ce:    6210        .b      STR      r0,[r2,#0x20]
        0x000019d0:    6810        .h      LDR      r0,[r2,#0]
        0x000019d2:    2401        .$      MOVS     r4,#1
        0x000019d4:    4320         C      ORRS     r0,r0,r4
        0x000019d6:    6010        .`      STR      r0,[r2,#0]
        0x000019d8:    6810        .h      LDR      r0,[r2,#0]
        0x000019da:    07c0        ..      LSLS     r0,r0,#31
        0x000019dc:    d1fc        ..      BNE      0x19d8 ; lcdSetAddr + 28
        0x000019de:    6890        .h      LDR      r0,[r2,#8]
        0x000019e0:    4398        .C      BICS     r0,r0,r3
        0x000019e2:    6090        .`      STR      r0,[r2,#8]
        0x000019e4:    6890        .h      LDR      r0,[r2,#8]
        0x000019e6:    4398        .C      BICS     r0,r0,r3
        0x000019e8:    1c40        @.      ADDS     r0,r0,#1
        0x000019ea:    6090        .`      STR      r0,[r2,#8]
        0x000019ec:    0908        ..      LSRS     r0,r1,#4
        0x000019ee:    3010        .0      ADDS     r0,r0,#0x10
        0x000019f0:    6210        .b      STR      r0,[r2,#0x20]
        0x000019f2:    6810        .h      LDR      r0,[r2,#0]
        0x000019f4:    4320         C      ORRS     r0,r0,r4
        0x000019f6:    6010        .`      STR      r0,[r2,#0]
        0x000019f8:    6810        .h      LDR      r0,[r2,#0]
        0x000019fa:    07c0        ..      LSLS     r0,r0,#31
        0x000019fc:    d1fc        ..      BNE      0x19f8 ; lcdSetAddr + 60
        0x000019fe:    6890        .h      LDR      r0,[r2,#8]
        0x00001a00:    4398        .C      BICS     r0,r0,r3
        0x00001a02:    6090        .`      STR      r0,[r2,#8]
        0x00001a04:    6890        .h      LDR      r0,[r2,#8]
        0x00001a06:    4398        .C      BICS     r0,r0,r3
        0x00001a08:    1c40        @.      ADDS     r0,r0,#1
        0x00001a0a:    6090        .`      STR      r0,[r2,#8]
        0x00001a0c:    0708        ..      LSLS     r0,r1,#28
        0x00001a0e:    0f00        ..      LSRS     r0,r0,#28
        0x00001a10:    6210        .b      STR      r0,[r2,#0x20]
        0x00001a12:    6810        .h      LDR      r0,[r2,#0]
        0x00001a14:    4320         C      ORRS     r0,r0,r4
        0x00001a16:    6010        .`      STR      r0,[r2,#0]
        0x00001a18:    6810        .h      LDR      r0,[r2,#0]
        0x00001a1a:    07c0        ..      LSLS     r0,r0,#31
        0x00001a1c:    d1fc        ..      BNE      0x1a18 ; lcdSetAddr + 92
        0x00001a1e:    6890        .h      LDR      r0,[r2,#8]
        0x00001a20:    4398        .C      BICS     r0,r0,r3
        0x00001a22:    6090        .`      STR      r0,[r2,#8]
        0x00001a24:    bd10        ..      POP      {r4,pc}
    $d
        0x00001a26:    0000        ..      DCW    0
        0x00001a28:    40134000    .@.@    DCD    1075003392
    $t
    i.lcdWriteCommand
    lcdWriteCommand
        0x00001a2c:    4908        .I      LDR      r1,[pc,#32] ; [0x1a50] = 0x40134000
        0x00001a2e:    688b        .h      LDR      r3,[r1,#8]
        0x00001a30:    220d        ."      MOVS     r2,#0xd
        0x00001a32:    4393        .C      BICS     r3,r3,r2
        0x00001a34:    1c5b        [.      ADDS     r3,r3,#1
        0x00001a36:    608b        .`      STR      r3,[r1,#8]
        0x00001a38:    6208        .b      STR      r0,[r1,#0x20]
        0x00001a3a:    6808        .h      LDR      r0,[r1,#0]
        0x00001a3c:    2301        .#      MOVS     r3,#1
        0x00001a3e:    4318        .C      ORRS     r0,r0,r3
        0x00001a40:    6008        .`      STR      r0,[r1,#0]
        0x00001a42:    6808        .h      LDR      r0,[r1,#0]
        0x00001a44:    07c0        ..      LSLS     r0,r0,#31
        0x00001a46:    d1fc        ..      BNE      0x1a42 ; lcdWriteCommand + 22
        0x00001a48:    6888        .h      LDR      r0,[r1,#8]
        0x00001a4a:    4390        .C      BICS     r0,r0,r2
        0x00001a4c:    6088        .`      STR      r0,[r1,#8]
        0x00001a4e:    4770        pG      BX       lr
    $d
        0x00001a50:    40134000    .@.@    DCD    1075003392
    $t
    i.lcdWriteData
    lcdWriteData
        0x00001a54:    4909        .I      LDR      r1,[pc,#36] ; [0x1a7c] = 0x40134000
        0x00001a56:    688b        .h      LDR      r3,[r1,#8]
        0x00001a58:    220d        ."      MOVS     r2,#0xd
        0x00001a5a:    4393        .C      BICS     r3,r3,r2
        0x00001a5c:    1c5b        [.      ADDS     r3,r3,#1
        0x00001a5e:    608b        .`      STR      r3,[r1,#8]
        0x00001a60:    30ff        .0      ADDS     r0,r0,#0xff
        0x00001a62:    3001        .0      ADDS     r0,#1
        0x00001a64:    6208        .b      STR      r0,[r1,#0x20]
        0x00001a66:    6808        .h      LDR      r0,[r1,#0]
        0x00001a68:    2301        .#      MOVS     r3,#1
        0x00001a6a:    4318        .C      ORRS     r0,r0,r3
        0x00001a6c:    6008        .`      STR      r0,[r1,#0]
        0x00001a6e:    6808        .h      LDR      r0,[r1,#0]
        0x00001a70:    07c0        ..      LSLS     r0,r0,#31
        0x00001a72:    d1fc        ..      BNE      0x1a6e ; lcdWriteData + 26
        0x00001a74:    6888        .h      LDR      r0,[r1,#8]
        0x00001a76:    4390        .C      BICS     r0,r0,r2
        0x00001a78:    6088        .`      STR      r0,[r1,#8]
        0x00001a7a:    4770        pG      BX       lr
    $d
        0x00001a7c:    40134000    .@.@    DCD    1075003392
    $t
    i.main
    main
        0x00001a80:    b50e        ..      PUSH     {r1-r3,lr}
        0x00001a82:    f7fff9c3    ....    BL       SYS_Init ; 0xe0c
        0x00001a86:    f7feff4f    ..O.    BL       Init_Timer0 ; 0x928
        0x00001a8a:    f7feff65    ..e.    BL       Init_Timer1 ; 0x958
        0x00001a8e:    f7feff77    ..w.    BL       Init_Timer2 ; 0x980
        0x00001a92:    f7fefeeb    ....    BL       Init_EXTINT ; 0x86c
        0x00001a96:    f7feff31    ..1.    BL       Init_Signal_Capturer ; 0x8fc
        0x00001a9a:    f7feff03    ....    BL       Init_Keypad_Capturer ; 0x8a4
        0x00001a9e:    f7feff85    ....    BL       IrDA_NEC_TxRx_Init ; 0x9ac
        0x00001aa2:    2201        ."      MOVS     r2,#1
        0x00001aa4:    0391        ..      LSLS     r1,r2,#14
        0x00001aa6:    48fe        .H      LDR      r0,[pc,#1016] ; [0x1ea0] = 0x500040c0
        0x00001aa8:    f7fefecb    ....    BL       GPIO_SetMode ; 0x842
        0x00001aac:    48fd        .H      LDR      r0,[pc,#1012] ; [0x1ea4] = 0x500042c0
        0x00001aae:    2400        .$      MOVS     r4,#0
        0x00001ab0:    6384        .c      STR      r4,[r0,#0x38]
        0x00001ab2:    f7ffff5d    ..].    BL       init_LCD ; 0x1970
        0x00001ab6:    f7fffe5b    ..[.    BL       clear_LCD ; 0x1770
        0x00001aba:    49fb        .I      LDR      r1,[pc,#1004] ; [0x1ea8] = 0x20000930
        0x00001abc:    2000        .       MOVS     r0,#0
        0x00001abe:    f000fac3    ....    BL       print_Line ; 0x2048
        0x00001ac2:    49f9        .I      LDR      r1,[pc,#996] ; [0x1ea8] = 0x20000930
        0x00001ac4:    2001        .       MOVS     r0,#1
        0x00001ac6:    3111        .1      ADDS     r1,r1,#0x11
        0x00001ac8:    9102        ..      STR      r1,[sp,#8]
        0x00001aca:    f000fabd    ....    BL       print_Line ; 0x2048
        0x00001ace:    4df7        .M      LDR      r5,[pc,#988] ; [0x1eac] = 0x200007fc
        0x00001ad0:    2601        .&      MOVS     r6,#1
        0x00001ad2:    70ec        .p      STRB     r4,[r5,#3]
        0x00001ad4:    712e        .q      STRB     r6,[r5,#4]
        0x00001ad6:    732e        .s      STRB     r6,[r5,#0xc]
        0x00001ad8:    736e        ns      STRB     r6,[r5,#0xd]
        0x00001ada:    71ec        .q      STRB     r4,[r5,#7]
        0x00001adc:    7d68        h}      LDRB     r0,[r5,#0x15]
        0x00001ade:    2800        .(      CMP      r0,#0
        0x00001ae0:    d07e        ~.      BEQ      0x1be0 ; main + 352
        0x00001ae2:    7da8        .}      LDRB     r0,[r5,#0x16]
        0x00001ae4:    2800        .(      CMP      r0,#0
        0x00001ae6:    d17b        {.      BNE      0x1be0 ; main + 352
        0x00001ae8:    7d68        h}      LDRB     r0,[r5,#0x15]
        0x00001aea:    1e80        ..      SUBS     r0,r0,#2
        0x00001aec:    0003        ..      MOVS     r3,r0
        0x00001aee:    f7fffbe3    ....    BL       __ARM_common_switch8 ; 0x12b8
    $d
        0x00001af2:    0507        ..      DCW    1287
        0x00001af4:    638e3827    '8.c    DCD    1670264871
        0x00001af8:    00271c27    '.'.    DCD    2563111
    $t
        0x00001afc:    7a29        )z      LDRB     r1,[r5,#8]
        0x00001afe:    78e8        .x      LDRB     r0,[r5,#3]
        0x00001b00:    4281        .B      CMP      r1,r0
        0x00001b02:    d906        ..      BLS      0x1b12 ; main + 146
        0x00001b04:    f7fffe5e    ..^.    BL       clear_cursor ; 0x17c4
        0x00001b08:    f7fffe6e    ..n.    BL       clear_name_block ; 0x17e8
        0x00001b0c:    7a28        (z      LDRB     r0,[r5,#8]
        0x00001b0e:    1e40        @.      SUBS     r0,r0,#1
        0x00001b10:    e015        ..      B        0x1b3e ; main + 190
        0x00001b12:    7869        ix      LDRB     r1,[r5,#1]
        0x00001b14:    2902        .)      CMP      r1,#2
        0x00001b16:    d113        ..      BNE      0x1b40 ; main + 192
        0x00001b18:    7a29        )z      LDRB     r1,[r5,#8]
        0x00001b1a:    4281        .B      CMP      r1,r0
        0x00001b1c:    d1fb        ..      BNE      0x1b16 ; main + 150
        0x00001b1e:    79e8        .y      LDRB     r0,[r5,#7]
        0x00001b20:    2800        .(      CMP      r0,#0
        0x00001b22:    d00d        ..      BEQ      0x1b40 ; main + 192
        0x00001b24:    79e8        .y      LDRB     r0,[r5,#7]
        0x00001b26:    1e40        @.      SUBS     r0,r0,#1
        0x00001b28:    e019        ..      B        0x1b5e ; main + 222
        0x00001b2a:    7a29        )z      LDRB     r1,[r5,#8]
        0x00001b2c:    7928        (y      LDRB     r0,[r5,#4]
        0x00001b2e:    4281        .B      CMP      r1,r0
        0x00001b30:    d207        ..      BCS      0x1b42 ; main + 194
        0x00001b32:    f7fffe47    ..G.    BL       clear_cursor ; 0x17c4
        0x00001b36:    f7fffe57    ..W.    BL       clear_name_block ; 0x17e8
        0x00001b3a:    7a28        (z      LDRB     r0,[r5,#8]
        0x00001b3c:    1c40        @.      ADDS     r0,r0,#1
        0x00001b3e:    7228        (r      STRB     r0,[r5,#8]
        0x00001b40:    e158        X.      B        0x1df4 ; main + 884
        0x00001b42:    7869        ix      LDRB     r1,[r5,#1]
        0x00001b44:    2902        .)      CMP      r1,#2
        0x00001b46:    d1fb        ..      BNE      0x1b40 ; main + 192
        0x00001b48:    7a29        )z      LDRB     r1,[r5,#8]
        0x00001b4a:    4281        .B      CMP      r1,r0
        0x00001b4c:    d1f8        ..      BNE      0x1b40 ; main + 192
        0x00001b4e:    79e9        .y      LDRB     r1,[r5,#7]
        0x00001b50:    7828        (x      LDRB     r0,[r5,#0]
        0x00001b52:    1cc9        ..      ADDS     r1,r1,#3
        0x00001b54:    1e40        @.      SUBS     r0,r0,#1
        0x00001b56:    4281        .B      CMP      r1,r0
        0x00001b58:    daf2        ..      BGE      0x1b40 ; main + 192
        0x00001b5a:    79e8        .y      LDRB     r0,[r5,#7]
        0x00001b5c:    1c40        @.      ADDS     r0,r0,#1
        0x00001b5e:    71e8        .q      STRB     r0,[r5,#7]
        0x00001b60:    e08b        ..      B        0x1c7a ; main + 506
        0x00001b62:    7a69        iz      LDRB     r1,[r5,#9]
        0x00001b64:    7968        hy      LDRB     r0,[r5,#5]
        0x00001b66:    4281        .B      CMP      r1,r0
        0x00001b68:    d91d        ..      BLS      0x1ba6 ; main + 294
        0x00001b6a:    f7fffe2b    ..+.    BL       clear_cursor ; 0x17c4
        0x00001b6e:    f7fffe3b    ..;.    BL       clear_name_block ; 0x17e8
        0x00001b72:    7a68        hz      LDRB     r0,[r5,#9]
        0x00001b74:    1e40        @.      SUBS     r0,r0,#1
        0x00001b76:    7268        hr      STRB     r0,[r5,#9]
        0x00001b78:    7868        hx      LDRB     r0,[r5,#1]
        0x00001b7a:    2815        .(      CMP      r0,#0x15
        0x00001b7c:    d1e0        ..      BNE      0x1b40 ; main + 192
        0x00001b7e:    7a28        (z      LDRB     r0,[r5,#8]
        0x00001b80:    2803        .(      CMP      r0,#3
        0x00001b82:    d1dd        ..      BNE      0x1b40 ; main + 192
        0x00001b84:    7a68        hz      LDRB     r0,[r5,#9]
        0x00001b86:    280e        .(      CMP      r0,#0xe
        0x00001b88:    d009        ..      BEQ      0x1b9e ; main + 286
        0x00001b8a:    7a68        hz      LDRB     r0,[r5,#9]
        0x00001b8c:    280f        .(      CMP      r0,#0xf
        0x00001b8e:    d006        ..      BEQ      0x1b9e ; main + 286
        0x00001b90:    7a68        hz      LDRB     r0,[r5,#9]
        0x00001b92:    280b        .(      CMP      r0,#0xb
        0x00001b94:    d005        ..      BEQ      0x1ba2 ; main + 290
        0x00001b96:    7a68        hz      LDRB     r0,[r5,#9]
        0x00001b98:    280c        .(      CMP      r0,#0xc
        0x00001b9a:    d002        ..      BEQ      0x1ba2 ; main + 290
        0x00001b9c:    e12a        *.      B        0x1df4 ; main + 884
        0x00001b9e:    200d        .       MOVS     r0,#0xd
        0x00001ba0:    e033        3.      B        0x1c0a ; main + 394
        0x00001ba2:    200a        .       MOVS     r0,#0xa
        0x00001ba4:    e031        1.      B        0x1c0a ; main + 394
        0x00001ba6:    79a9        .y      LDRB     r1,[r5,#6]
        0x00001ba8:    4288        .B      CMP      r0,r1
        0x00001baa:    d0c9        ..      BEQ      0x1b40 ; main + 192
        0x00001bac:    f7fffe0a    ....    BL       clear_cursor ; 0x17c4
        0x00001bb0:    f7fffe1a    ....    BL       clear_name_block ; 0x17e8
        0x00001bb4:    79a8        .y      LDRB     r0,[r5,#6]
        0x00001bb6:    e028        (.      B        0x1c0a ; main + 394
        0x00001bb8:    7a69        iz      LDRB     r1,[r5,#9]
        0x00001bba:    79a8        .y      LDRB     r0,[r5,#6]
        0x00001bbc:    4281        .B      CMP      r1,r0
        0x00001bbe:    d21c        ..      BCS      0x1bfa ; main + 378
        0x00001bc0:    f7fffe00    ....    BL       clear_cursor ; 0x17c4
        0x00001bc4:    f7fffe10    ....    BL       clear_name_block ; 0x17e8
        0x00001bc8:    7a68        hz      LDRB     r0,[r5,#9]
        0x00001bca:    1c40        @.      ADDS     r0,r0,#1
        0x00001bcc:    7268        hr      STRB     r0,[r5,#9]
        0x00001bce:    7868        hx      LDRB     r0,[r5,#1]
        0x00001bd0:    2815        .(      CMP      r0,#0x15
        0x00001bd2:    d1b5        ..      BNE      0x1b40 ; main + 192
        0x00001bd4:    7a28        (z      LDRB     r0,[r5,#8]
        0x00001bd6:    2803        .(      CMP      r0,#3
        0x00001bd8:    d1b2        ..      BNE      0x1b40 ; main + 192
        0x00001bda:    7a68        hz      LDRB     r0,[r5,#9]
        0x00001bdc:    280c        .(      CMP      r0,#0xc
        0x00001bde:    e000        ..      B        0x1be2 ; main + 354
        0x00001be0:    e109        ..      B        0x1df6 ; main + 886
        0x00001be2:    d006        ..      BEQ      0x1bf2 ; main + 370
        0x00001be4:    7a68        hz      LDRB     r0,[r5,#9]
        0x00001be6:    280d        .(      CMP      r0,#0xd
        0x00001be8:    d003        ..      BEQ      0x1bf2 ; main + 370
        0x00001bea:    7a68        hz      LDRB     r0,[r5,#9]
        0x00001bec:    280f        .(      CMP      r0,#0xf
        0x00001bee:    d002        ..      BEQ      0x1bf6 ; main + 374
        0x00001bf0:    e100        ..      B        0x1df4 ; main + 884
        0x00001bf2:    200e        .       MOVS     r0,#0xe
        0x00001bf4:    e009        ..      B        0x1c0a ; main + 394
        0x00001bf6:    726c        lr      STRB     r4,[r5,#9]
        0x00001bf8:    e0fc        ..      B        0x1df4 ; main + 884
        0x00001bfa:    7969        iy      LDRB     r1,[r5,#5]
        0x00001bfc:    4281        .B      CMP      r1,r0
        0x00001bfe:    d09f        ..      BEQ      0x1b40 ; main + 192
        0x00001c00:    f7fffde0    ....    BL       clear_cursor ; 0x17c4
        0x00001c04:    f7fffdf0    ....    BL       clear_name_block ; 0x17e8
        0x00001c08:    7968        hy      LDRB     r0,[r5,#5]
        0x00001c0a:    7268        hr      STRB     r0,[r5,#9]
        0x00001c0c:    e0f2        ..      B        0x1df4 ; main + 884
        0x00001c0e:    7868        hx      LDRB     r0,[r5,#1]
        0x00001c10:    210a        .!      MOVS     r1,#0xa
        0x00001c12:    4607        .F      MOV      r7,r0
        0x00001c14:    f7fefa84    ....    BL       __aeabi_uidiv ; 0x120
        0x00001c18:    2900        .)      CMP      r1,#0
        0x00001c1a:    d004        ..      BEQ      0x1c26 ; main + 422
        0x00001c1c:    2901        .)      CMP      r1,#1
        0x00001c1e:    d01d        ..      BEQ      0x1c5c ; main + 476
        0x00001c20:    2902        .)      CMP      r1,#2
        0x00001c22:    d075        u.      BEQ      0x1d10 ; main + 656
        0x00001c24:    e0e6        ..      B        0x1df4 ; main + 884
        0x00001c26:    7a28        (z      LDRB     r0,[r5,#8]
        0x00001c28:    2800        .(      CMP      r0,#0
        0x00001c2a:    d004        ..      BEQ      0x1c36 ; main + 438
        0x00001c2c:    7828        (x      LDRB     r0,[r5,#0]
        0x00001c2e:    2800        .(      CMP      r0,#0
        0x00001c30:    d008        ..      BEQ      0x1c44 ; main + 452
        0x00001c32:    2101        .!      MOVS     r1,#1
        0x00001c34:    e007        ..      B        0x1c46 ; main + 454
        0x00001c36:    732c        ,s      STRB     r4,[r5,#0xc]
        0x00001c38:    2002        .       MOVS     r0,#2
        0x00001c3a:    7228        (r      STRB     r0,[r5,#8]
        0x00001c3c:    70e8        .p      STRB     r0,[r5,#3]
        0x00001c3e:    2003        .       MOVS     r0,#3
        0x00001c40:    7128        (q      STRB     r0,[r5,#4]
        0x00001c42:    e016        ..      B        0x1c72 ; main + 498
        0x00001c44:    2100        .!      MOVS     r1,#0
        0x00001c46:    7329        )s      STRB     r1,[r5,#0xc]
        0x00001c48:    722c        ,r      STRB     r4,[r5,#8]
        0x00001c4a:    70ec        .p      STRB     r4,[r5,#3]
        0x00001c4c:    2804        .(      CMP      r0,#4
        0x00001c4e:    d201        ..      BCS      0x1c54 ; main + 468
        0x00001c50:    1e40        @.      SUBS     r0,r0,#1
        0x00001c52:    e000        ..      B        0x1c56 ; main + 470
        0x00001c54:    2003        .       MOVS     r0,#3
        0x00001c56:    7128        (q      STRB     r0,[r5,#4]
        0x00001c58:    2002        .       MOVS     r0,#2
        0x00001c5a:    e089        ..      B        0x1d70 ; main + 752
        0x00001c5c:    2f0b        ./      CMP      r7,#0xb
        0x00001c5e:    d002        ..      BEQ      0x1c66 ; main + 486
        0x00001c60:    2f15        ./      CMP      r7,#0x15
        0x00001c62:    d01a        ..      BEQ      0x1c9a ; main + 538
        0x00001c64:    e0c6        ..      B        0x1df4 ; main + 884
        0x00001c66:    7a28        (z      LDRB     r0,[r5,#8]
        0x00001c68:    2802        .(      CMP      r0,#2
        0x00001c6a:    d008        ..      BEQ      0x1c7e ; main + 510
        0x00001c6c:    732c        ,s      STRB     r4,[r5,#0xc]
        0x00001c6e:    2002        .       MOVS     r0,#2
        0x00001c70:    7228        (r      STRB     r0,[r5,#8]
        0x00001c72:    2005        .       MOVS     r0,#5
        0x00001c74:    f7fefee4    ....    BL       NVIC_EnableIRQ ; 0xa40
        0x00001c78:    706e        np      STRB     r6,[r5,#1]
        0x00001c7a:    70ae        .p      STRB     r6,[r5,#2]
        0x00001c7c:    e0ba        ..      B        0x1df4 ; main + 884
        0x00001c7e:    f7fffda1    ....    BL       clear_cursor ; 0x17c4
        0x00001c82:    732c        ,s      STRB     r4,[r5,#0xc]
        0x00001c84:    2002        .       MOVS     r0,#2
        0x00001c86:    7228        (r      STRB     r0,[r5,#8]
        0x00001c88:    726c        lr      STRB     r4,[r5,#9]
        0x00001c8a:    70e8        .p      STRB     r0,[r5,#3]
        0x00001c8c:    2003        .       MOVS     r0,#3
        0x00001c8e:    7128        (q      STRB     r0,[r5,#4]
        0x00001c90:    716c        lq      STRB     r4,[r5,#5]
        0x00001c92:    200f        .       MOVS     r0,#0xf
        0x00001c94:    71a8        .q      STRB     r0,[r5,#6]
        0x00001c96:    2015        .       MOVS     r0,#0x15
        0x00001c98:    e06a        j.      B        0x1d70 ; main + 752
        0x00001c9a:    7a28        (z      LDRB     r0,[r5,#8]
        0x00001c9c:    2802        .(      CMP      r0,#2
        0x00001c9e:    d10d        ..      BNE      0x1cbc ; main + 572
        0x00001ca0:    7ba8        .{      LDRB     r0,[r5,#0xe]
        0x00001ca2:    280f        .(      CMP      r0,#0xf
        0x00001ca4:    d20a        ..      BCS      0x1cbc ; main + 572
        0x00001ca6:    7a68        hz      LDRB     r0,[r5,#9]
        0x00001ca8:    4f81        .O      LDR      r7,[pc,#516] ; [0x1eb0] = 0x20000e2c
        0x00001caa:    7ba9        .{      LDRB     r1,[r5,#0xe]
        0x00001cac:    3041        A0      ADDS     r0,r0,#0x41
        0x00001cae:    5478        xT      STRB     r0,[r7,r1]
        0x00001cb0:    7ba8        .{      LDRB     r0,[r5,#0xe]
        0x00001cb2:    7a6a        jz      LDRB     r2,[r5,#9]
        0x00001cb4:    00c0        ..      LSLS     r0,r0,#3
        0x00001cb6:    2110        .!      MOVS     r1,#0x10
        0x00001cb8:    3241        A2      ADDS     r2,r2,#0x41
        0x00001cba:    e012        ..      B        0x1ce2 ; main + 610
        0x00001cbc:    7a28        (z      LDRB     r0,[r5,#8]
        0x00001cbe:    2803        .(      CMP      r0,#3
        0x00001cc0:    d116        ..      BNE      0x1cf0 ; main + 624
        0x00001cc2:    7a68        hz      LDRB     r0,[r5,#9]
        0x00001cc4:    280a        .(      CMP      r0,#0xa
        0x00001cc6:    d214        ..      BCS      0x1cf2 ; main + 626
        0x00001cc8:    7ba8        .{      LDRB     r0,[r5,#0xe]
        0x00001cca:    280f        .(      CMP      r0,#0xf
        0x00001ccc:    d211        ..      BCS      0x1cf2 ; main + 626
        0x00001cce:    7a68        hz      LDRB     r0,[r5,#9]
        0x00001cd0:    4f77        wO      LDR      r7,[pc,#476] ; [0x1eb0] = 0x20000e2c
        0x00001cd2:    7ba9        .{      LDRB     r1,[r5,#0xe]
        0x00001cd4:    3051        Q0      ADDS     r0,r0,#0x51
        0x00001cd6:    5478        xT      STRB     r0,[r7,r1]
        0x00001cd8:    7ba8        .{      LDRB     r0,[r5,#0xe]
        0x00001cda:    7a6a        jz      LDRB     r2,[r5,#9]
        0x00001cdc:    00c0        ..      LSLS     r0,r0,#3
        0x00001cde:    2110        .!      MOVS     r1,#0x10
        0x00001ce0:    3251        Q2      ADDS     r2,r2,#0x51
        0x00001ce2:    f000f951    ..Q.    BL       printC ; 0x1f88
        0x00001ce6:    7ba8        .{      LDRB     r0,[r5,#0xe]
        0x00001ce8:    1c40        @.      ADDS     r0,r0,#1
        0x00001cea:    73a8        .s      STRB     r0,[r5,#0xe]
        0x00001cec:    7ba8        .{      LDRB     r0,[r5,#0xe]
        0x00001cee:    543c        <T      STRB     r4,[r7,r0]
        0x00001cf0:    e080        ..      B        0x1df4 ; main + 884
        0x00001cf2:    7a68        hz      LDRB     r0,[r5,#9]
        0x00001cf4:    280b        .(      CMP      r0,#0xb
        0x00001cf6:    d20c        ..      BCS      0x1d12 ; main + 658
        0x00001cf8:    7ba8        .{      LDRB     r0,[r5,#0xe]
        0x00001cfa:    280f        .(      CMP      r0,#0xf
        0x00001cfc:    d209        ..      BCS      0x1d12 ; main + 658
        0x00001cfe:    4f6c        lO      LDR      r7,[pc,#432] ; [0x1eb0] = 0x20000e2c
        0x00001d00:    7ba9        .{      LDRB     r1,[r5,#0xe]
        0x00001d02:    202d        -       MOVS     r0,#0x2d
        0x00001d04:    5478        xT      STRB     r0,[r7,r1]
        0x00001d06:    7ba8        .{      LDRB     r0,[r5,#0xe]
        0x00001d08:    222d        -"      MOVS     r2,#0x2d
        0x00001d0a:    00c0        ..      LSLS     r0,r0,#3
        0x00001d0c:    2110        .!      MOVS     r1,#0x10
        0x00001d0e:    e7e8        ..      B        0x1ce2 ; main + 610
        0x00001d10:    e045        E.      B        0x1d9e ; main + 798
        0x00001d12:    7a68        hz      LDRB     r0,[r5,#9]
        0x00001d14:    280b        .(      CMP      r0,#0xb
        0x00001d16:    d00c        ..      BEQ      0x1d32 ; main + 690
        0x00001d18:    7a68        hz      LDRB     r0,[r5,#9]
        0x00001d1a:    280c        .(      CMP      r0,#0xc
        0x00001d1c:    d009        ..      BEQ      0x1d32 ; main + 690
        0x00001d1e:    7a68        hz      LDRB     r0,[r5,#9]
        0x00001d20:    280d        .(      CMP      r0,#0xd
        0x00001d22:    d006        ..      BEQ      0x1d32 ; main + 690
        0x00001d24:    7a68        hz      LDRB     r0,[r5,#9]
        0x00001d26:    280e        .(      CMP      r0,#0xe
        0x00001d28:    d010        ..      BEQ      0x1d4c ; main + 716
        0x00001d2a:    7a68        hz      LDRB     r0,[r5,#9]
        0x00001d2c:    280f        .(      CMP      r0,#0xf
        0x00001d2e:    d00d        ..      BEQ      0x1d4c ; main + 716
        0x00001d30:    e060        `.      B        0x1df4 ; main + 884
        0x00001d32:    7ba8        .{      LDRB     r0,[r5,#0xe]
        0x00001d34:    1e40        @.      SUBS     r0,r0,#1
        0x00001d36:    73a8        .s      STRB     r0,[r5,#0xe]
        0x00001d38:    485d        ]H      LDR      r0,[pc,#372] ; [0x1eb0] = 0x20000e2c
        0x00001d3a:    7ba9        .{      LDRB     r1,[r5,#0xe]
        0x00001d3c:    5444        DT      STRB     r4,[r0,r1]
        0x00001d3e:    7ba8        .{      LDRB     r0,[r5,#0xe]
        0x00001d40:    2220         "      MOVS     r2,#0x20
        0x00001d42:    00c0        ..      LSLS     r0,r0,#3
        0x00001d44:    2110        .!      MOVS     r1,#0x10
        0x00001d46:    f000f91f    ....    BL       printC ; 0x1f88
        0x00001d4a:    e053        S.      B        0x1df4 ; main + 884
        0x00001d4c:    7ba8        .{      LDRB     r0,[r5,#0xe]
        0x00001d4e:    2800        .(      CMP      r0,#0
        0x00001d50:    7828        (x      LDRB     r0,[r5,#0]
        0x00001d52:    d00f        ..      BEQ      0x1d74 ; main + 756
        0x00001d54:    0101        ..      LSLS     r1,r0,#4
        0x00001d56:    1841        A.      ADDS     r1,r0,r1
        0x00001d58:    4854        TH      LDR      r0,[pc,#336] ; [0x1eac] = 0x200007fc
        0x00001d5a:    4a55        UJ      LDR      r2,[pc,#340] ; [0x1eb0] = 0x20000e2c
        0x00001d5c:    3024        $0      ADDS     r0,r0,#0x24
        0x00001d5e:    1808        ..      ADDS     r0,r1,r0
        0x00001d60:    a154        T.      ADR      r1,{pc}+0x154 ; 0x1eb4
        0x00001d62:    f7fffa95    ....    BL       __0sprintf$8 ; 0x1290
        0x00001d66:    73ac        .s      STRB     r4,[r5,#0xe]
        0x00001d68:    7828        (x      LDRB     r0,[r5,#0]
        0x00001d6a:    1c40        @.      ADDS     r0,r0,#1
        0x00001d6c:    7028        (p      STRB     r0,[r5,#0]
        0x00001d6e:    201f        .       MOVS     r0,#0x1f
        0x00001d70:    7068        hp      STRB     r0,[r5,#1]
        0x00001d72:    e782        ..      B        0x1c7a ; main + 506
        0x00001d74:    494e        NI      LDR      r1,[pc,#312] ; [0x1eb0] = 0x20000e2c
        0x00001d76:    0087        ..      LSLS     r7,r0,#2
        0x00001d78:    3940        @9      SUBS     r1,r1,#0x40
        0x00001d7a:    1879        y.      ADDS     r1,r7,r1
        0x00001d7c:    78cb        .x      LDRB     r3,[r1,#3]
        0x00001d7e:    788a        .x      LDRB     r2,[r1,#2]
        0x00001d80:    9301        ..      STR      r3,[sp,#4]
        0x00001d82:    9200        ..      STR      r2,[sp,#0]
        0x00001d84:    784b        Kx      LDRB     r3,[r1,#1]
        0x00001d86:    494a        JI      LDR      r1,[pc,#296] ; [0x1eb0] = 0x20000e2c
        0x00001d88:    3940        @9      SUBS     r1,r1,#0x40
        0x00001d8a:    5dca        .]      LDRB     r2,[r1,r7]
        0x00001d8c:    0101        ..      LSLS     r1,r0,#4
        0x00001d8e:    1841        A.      ADDS     r1,r0,r1
        0x00001d90:    4846        FH      LDR      r0,[pc,#280] ; [0x1eac] = 0x200007fc
        0x00001d92:    3024        $0      ADDS     r0,r0,#0x24
        0x00001d94:    1808        ..      ADDS     r0,r1,r0
        0x00001d96:    a148        H.      ADR      r1,{pc}+0x122 ; 0x1eb8
        0x00001d98:    f7fffa7a    ..z.    BL       __0sprintf$8 ; 0x1290
        0x00001d9c:    e7e4        ..      B        0x1d68 ; main + 744
        0x00001d9e:    7828        (x      LDRB     r0,[r5,#0]
        0x00001da0:    2800        .(      CMP      r0,#0
        0x00001da2:    d027        '.      BEQ      0x1df4 ; main + 884
        0x00001da4:    4f49        IO      LDR      r7,[pc,#292] ; [0x1ecc] = 0x40010000
        0x00001da6:    6839        9h      LDR      r1,[r7,#0]
        0x00001da8:    03b8        ..      LSLS     r0,r7,#14
        0x00001daa:    4381        .C      BICS     r1,r1,r0
        0x00001dac:    6039        9`      STR      r1,[r7,#0]
        0x00001dae:    4a48        HJ      LDR      r2,[pc,#288] ; [0x1ed0] = 0x40110000
        0x00001db0:    6811        .h      LDR      r1,[r2,#0]
        0x00001db2:    4381        .C      BICS     r1,r1,r0
        0x00001db4:    6011        .`      STR      r1,[r2,#0]
        0x00001db6:    7a28        (z      LDRB     r0,[r5,#8]
        0x00001db8:    79e9        .y      LDRB     r1,[r5,#7]
        0x00001dba:    1840        @.      ADDS     r0,r0,r1
        0x00001dbc:    0081        ..      LSLS     r1,r0,#2
        0x00001dbe:    483c        <H      LDR      r0,[pc,#240] ; [0x1eb0] = 0x20000e2c
        0x00001dc0:    3840        @8      SUBS     r0,r0,#0x40
        0x00001dc2:    1808        ..      ADDS     r0,r1,r0
        0x00001dc4:    f7fff896    ....    BL       SendNEC ; 0xef4
        0x00001dc8:    4842        BH      LDR      r0,[pc,#264] ; [0x1ed4] = 0x20000004
        0x00001dca:    6801        .h      LDR      r1,[r0,#0]
        0x00001dcc:    4842        BH      LDR      r0,[pc,#264] ; [0x1ed8] = 0x493e0
        0x00001dce:    4341        AC      MULS     r1,r0,r1
        0x00001dd0:    4842        BH      LDR      r0,[pc,#264] ; [0x1edc] = 0xe000e000
        0x00001dd2:    6141        Aa      STR      r1,[r0,#0x14]
        0x00001dd4:    6184        .a      STR      r4,[r0,#0x18]
        0x00001dd6:    2105        .!      MOVS     r1,#5
        0x00001dd8:    6101        .a      STR      r1,[r0,#0x10]
        0x00001dda:    6901        .i      LDR      r1,[r0,#0x10]
        0x00001ddc:    03c9        ..      LSLS     r1,r1,#15
        0x00001dde:    d5fc        ..      BPL      0x1dda ; main + 858
        0x00001de0:    6104        .a      STR      r4,[r0,#0x10]
        0x00001de2:    6839        9h      LDR      r1,[r7,#0]
        0x00001de4:    2001        .       MOVS     r0,#1
        0x00001de6:    0780        ..      LSLS     r0,r0,#30
        0x00001de8:    4301        .C      ORRS     r1,r1,r0
        0x00001dea:    6039        9`      STR      r1,[r7,#0]
        0x00001dec:    4a38        8J      LDR      r2,[pc,#224] ; [0x1ed0] = 0x40110000
        0x00001dee:    6811        .h      LDR      r1,[r2,#0]
        0x00001df0:    4301        .C      ORRS     r1,r1,r0
        0x00001df2:    6011        .`      STR      r1,[r2,#0]
        0x00001df4:    756c        lu      STRB     r4,[r5,#0x15]
        0x00001df6:    78a8        .x      LDRB     r0,[r5,#2]
        0x00001df8:    2800        .(      CMP      r0,#0
        0x00001dfa:    d050        P.      BEQ      0x1e9e ; main + 1054
        0x00001dfc:    f7fffcb8    ....    BL       clear_LCD ; 0x1770
        0x00001e00:    7868        hx      LDRB     r0,[r5,#1]
        0x00001e02:    210a        .!      MOVS     r1,#0xa
        0x00001e04:    4607        .F      MOV      r7,r0
        0x00001e06:    f7fef98b    ....    BL       __aeabi_uidiv ; 0x120
        0x00001e0a:    2900        .)      CMP      r1,#0
        0x00001e0c:    d004        ..      BEQ      0x1e18 ; main + 920
        0x00001e0e:    2901        .)      CMP      r1,#1
        0x00001e10:    d009        ..      BEQ      0x1e26 ; main + 934
        0x00001e12:    2902        .)      CMP      r1,#2
        0x00001e14:    d07d        }.      BEQ      0x1f12 ; main + 1170
        0x00001e16:    e0a2        ..      B        0x1f5e ; main + 1246
        0x00001e18:    4923        #I      LDR      r1,[pc,#140] ; [0x1ea8] = 0x20000930
        0x00001e1a:    2000        .       MOVS     r0,#0
        0x00001e1c:    f000f914    ....    BL       print_Line ; 0x2048
        0x00001e20:    2001        .       MOVS     r0,#1
        0x00001e22:    9902        ..      LDR      r1,[sp,#8]
        0x00001e24:    e099        ..      B        0x1f5a ; main + 1242
        0x00001e26:    2f01        ./      CMP      r7,#1
        0x00001e28:    d006        ..      BEQ      0x1e38 ; main + 952
        0x00001e2a:    2f0b        ./      CMP      r7,#0xb
        0x00001e2c:    d007        ..      BEQ      0x1e3e ; main + 958
        0x00001e2e:    2f15        ./      CMP      r7,#0x15
        0x00001e30:    d025        %.      BEQ      0x1e7e ; main + 1022
        0x00001e32:    2f1f        ./      CMP      r7,#0x1f
        0x00001e34:    d062        b.      BEQ      0x1efc ; main + 1148
        0x00001e36:    e092        ..      B        0x1f5e ; main + 1246
        0x00001e38:    491b        .I      LDR      r1,[pc,#108] ; [0x1ea8] = 0x20000930
        0x00001e3a:    3122        "1      ADDS     r1,r1,#0x22
        0x00001e3c:    e08c        ..      B        0x1f58 ; main + 1240
        0x00001e3e:    7828        (x      LDRB     r0,[r5,#0]
        0x00001e40:    4f1b        .O      LDR      r7,[pc,#108] ; [0x1eb0] = 0x20000e2c
        0x00001e42:    0081        ..      LSLS     r1,r0,#2
        0x00001e44:    3f40        @?      SUBS     r7,r7,#0x40
        0x00001e46:    19c8        ..      ADDS     r0,r1,r7
        0x00001e48:    78c3        .x      LDRB     r3,[r0,#3]
        0x00001e4a:    7882        .x      LDRB     r2,[r0,#2]
        0x00001e4c:    9301        ..      STR      r3,[sp,#4]
        0x00001e4e:    9200        ..      STR      r2,[sp,#0]
        0x00001e50:    7843        Cx      LDRB     r3,[r0,#1]
        0x00001e52:    5c7a        z\      LDRB     r2,[r7,r1]
        0x00001e54:    a122        ".      ADR      r1,{pc}+0x8c ; 0x1ee0
        0x00001e56:    4816        .H      LDR      r0,[pc,#88] ; [0x1eb0] = 0x20000e2c
        0x00001e58:    f7fffa1a    ....    BL       __0sprintf$8 ; 0x1290
        0x00001e5c:    4912        .I      LDR      r1,[pc,#72] ; [0x1ea8] = 0x20000930
        0x00001e5e:    2000        .       MOVS     r0,#0
        0x00001e60:    3133        31      ADDS     r1,r1,#0x33
        0x00001e62:    f000f8f1    ....    BL       print_Line ; 0x2048
        0x00001e66:    4912        .I      LDR      r1,[pc,#72] ; [0x1eb0] = 0x20000e2c
        0x00001e68:    2001        .       MOVS     r0,#1
        0x00001e6a:    f000f8ed    ....    BL       print_Line ; 0x2048
        0x00001e6e:    490e        .I      LDR      r1,[pc,#56] ; [0x1ea8] = 0x20000930
        0x00001e70:    2002        .       MOVS     r0,#2
        0x00001e72:    3144        D1      ADDS     r1,r1,#0x44
        0x00001e74:    f000f8e8    ....    BL       print_Line ; 0x2048
        0x00001e78:    490b        .I      LDR      r1,[pc,#44] ; [0x1ea8] = 0x20000930
        0x00001e7a:    3122        "1      ADDS     r1,r1,#0x22
        0x00001e7c:    e068        h.      B        0x1f50 ; main + 1232
        0x00001e7e:    490a        .I      LDR      r1,[pc,#40] ; [0x1ea8] = 0x20000930
        0x00001e80:    2000        .       MOVS     r0,#0
        0x00001e82:    3166        f1      ADDS     r1,r1,#0x66
        0x00001e84:    f000f8e0    ....    BL       print_Line ; 0x2048
        0x00001e88:    4907        .I      LDR      r1,[pc,#28] ; [0x1ea8] = 0x20000930
        0x00001e8a:    2002        .       MOVS     r0,#2
        0x00001e8c:    3188        .1      ADDS     r1,r1,#0x88
        0x00001e8e:    f000f8db    ....    BL       print_Line ; 0x2048
        0x00001e92:    4905        .I      LDR      r1,[pc,#20] ; [0x1ea8] = 0x20000930
        0x00001e94:    2003        .       MOVS     r0,#3
        0x00001e96:    3199        .1      ADDS     r1,r1,#0x99
        0x00001e98:    f000f8d6    ....    BL       print_Line ; 0x2048
        0x00001e9c:    e02b        +.      B        0x1ef6 ; main + 1142
        0x00001e9e:    e05f        _.      B        0x1f60 ; main + 1248
    $d
        0x00001ea0:    500040c0    .@.P    DCD    1342193856
        0x00001ea4:    500042c0    .B.P    DCD    1342194368
        0x00001ea8:    20000930    0..     DCD    536873264
        0x00001eac:    200007fc    ...     DCD    536872956
        0x00001eb0:    20000e2c    ,..     DCD    536874540
        0x00001eb4:    00732520     %s.    DCD    7546144
        0x00001eb8:    32302520     %02    DCD    842016032
        0x00001ebc:    32302558    X%02    DCD    842016088
        0x00001ec0:    32302558    X%02    DCD    842016088
        0x00001ec4:    32302558    X%02    DCD    842016088
        0x00001ec8:    00000058    X...    DCD    88
        0x00001ecc:    40010000    ...@    DCD    1073807360
        0x00001ed0:    40110000    ...@    DCD    1074855936
        0x00001ed4:    20000004    ...     DCD    536870916
        0x00001ed8:    000493e0    ....    DCD    300000
        0x00001edc:    e000e000    ....    DCD    3758153728
        0x00001ee0:    58323025    %02X    DCD    1479684133
        0x00001ee4:    58323025    %02X    DCD    1479684133
        0x00001ee8:    58323025    %02X    DCD    1479684133
        0x00001eec:    58323025    %02X    DCD    1479684133
        0x00001ef0:    00000000    ....    DCD    0
    $t
        0x00001ef4:    e00d        ..      B        0x1f12 ; main + 1170
        0x00001ef6:    f7fffce9    ....    BL       display_name_block ; 0x18cc
        0x00001efa:    e030        0.      B        0x1f5e ; main + 1246
        0x00001efc:    a11b        ..      ADR      r1,{pc}+0x70 ; 0x1f6c
        0x00001efe:    481f        .H      LDR      r0,[pc,#124] ; [0x1f7c] = 0x20000e2c
        0x00001f00:    f7fff9c6    ....    BL       __0sprintf$8 ; 0x1290
        0x00001f04:    491d        .I      LDR      r1,[pc,#116] ; [0x1f7c] = 0x20000e2c
        0x00001f06:    2001        .       MOVS     r0,#1
        0x00001f08:    f000f89e    ....    BL       print_Line ; 0x2048
        0x00001f0c:    2002        .       MOVS     r0,#2
        0x00001f0e:    73e8        .s      STRB     r0,[r5,#0xf]
        0x00001f10:    e025        %.      B        0x1f5e ; main + 1246
        0x00001f12:    7828        (x      LDRB     r0,[r5,#0]
        0x00001f14:    2800        .(      CMP      r0,#0
        0x00001f16:    d01e        ..      BEQ      0x1f56 ; main + 1238
        0x00001f18:    79e8        .y      LDRB     r0,[r5,#7]
        0x00001f1a:    4f19        .O      LDR      r7,[pc,#100] ; [0x1f80] = 0x20000820
        0x00001f1c:    0101        ..      LSLS     r1,r0,#4
        0x00001f1e:    1840        @.      ADDS     r0,r0,r1
        0x00001f20:    19c1        ..      ADDS     r1,r0,r7
        0x00001f22:    2000        .       MOVS     r0,#0
        0x00001f24:    f000f890    ....    BL       print_Line ; 0x2048
        0x00001f28:    79e8        .y      LDRB     r0,[r5,#7]
        0x00001f2a:    0101        ..      LSLS     r1,r0,#4
        0x00001f2c:    1840        @.      ADDS     r0,r0,r1
        0x00001f2e:    19c1        ..      ADDS     r1,r0,r7
        0x00001f30:    2001        .       MOVS     r0,#1
        0x00001f32:    3111        .1      ADDS     r1,r1,#0x11
        0x00001f34:    f000f888    ....    BL       print_Line ; 0x2048
        0x00001f38:    79e8        .y      LDRB     r0,[r5,#7]
        0x00001f3a:    0101        ..      LSLS     r1,r0,#4
        0x00001f3c:    1840        @.      ADDS     r0,r0,r1
        0x00001f3e:    19c1        ..      ADDS     r1,r0,r7
        0x00001f40:    2002        .       MOVS     r0,#2
        0x00001f42:    3122        "1      ADDS     r1,r1,#0x22
        0x00001f44:    f000f880    ....    BL       print_Line ; 0x2048
        0x00001f48:    79e8        .y      LDRB     r0,[r5,#7]
        0x00001f4a:    0101        ..      LSLS     r1,r0,#4
        0x00001f4c:    1840        @.      ADDS     r0,r0,r1
        0x00001f4e:    19c1        ..      ADDS     r1,r0,r7
        0x00001f50:    2003        .       MOVS     r0,#3
        0x00001f52:    3133        31      ADDS     r1,r1,#0x33
        0x00001f54:    e001        ..      B        0x1f5a ; main + 1242
        0x00001f56:    490b        .I      LDR      r1,[pc,#44] ; [0x1f84] = 0x200009da
        0x00001f58:    2000        .       MOVS     r0,#0
        0x00001f5a:    f000f875    ..u.    BL       print_Line ; 0x2048
        0x00001f5e:    70ac        .p      STRB     r4,[r5,#2]
        0x00001f60:    f7fffc94    ....    BL       display_cursor ; 0x188c
        0x00001f64:    f7fffcb2    ....    BL       display_name_block ; 0x18cc
        0x00001f68:    e5b8        ..      B        0x1adc ; main + 92
    $d
        0x00001f6a:    0000        ..      DCW    0
        0x00001f6c:    6e676953    Sign    DCD    1852270931
        0x00001f70:    53206c61    al S    DCD    1394633825
        0x00001f74:    64657661    aved    DCD    1684371041
        0x00001f78:    00000021    !...    DCD    33
        0x00001f7c:    20000e2c    ,..     DCD    536874540
        0x00001f80:    20000820     ..     DCD    536872992
        0x00001f84:    200009da    ...     DCD    536873434
    $t
    i.printC
    printC
        0x00001f88:    b5f0        ..      PUSH     {r4-r7,lr}
        0x00001f8a:    2381        .#      MOVS     r3,#0x81
        0x00001f8c:    1a1e        ..      SUBS     r6,r3,r0
        0x00001f8e:    17c8        ..      ASRS     r0,r1,#31
        0x00001f90:    0f40        @.      LSRS     r0,r0,#29
        0x00001f92:    0115        ..      LSLS     r5,r2,#4
        0x00001f94:    1840        @.      ADDS     r0,r0,r1
        0x00001f96:    3dff        .=      SUBS     r5,r5,#0xff
        0x00001f98:    2400        .$      MOVS     r4,#0
        0x00001f9a:    10c7        ..      ASRS     r7,r0,#3
        0x00001f9c:    3dff        .=      SUBS     r5,r5,#0xff
        0x00001f9e:    3d02        .=      SUBS     r5,#2
        0x00001fa0:    1b30        0.      SUBS     r0,r6,r4
        0x00001fa2:    b2c1        ..      UXTB     r1,r0
        0x00001fa4:    b2f8        ..      UXTB     r0,r7
        0x00001fa6:    f7fffd09    ....    BL       lcdSetAddr ; 0x19bc
        0x00001faa:    480d        .H      LDR      r0,[pc,#52] ; [0x1fe0] = 0x2000020c
        0x00001fac:    1929        ).      ADDS     r1,r5,r4
        0x00001fae:    5c40        @\      LDRB     r0,[r0,r1]
        0x00001fb0:    f7fffd50    ..P.    BL       lcdWriteData ; 0x1a54
        0x00001fb4:    1c64        d.      ADDS     r4,r4,#1
        0x00001fb6:    b264        d.      SXTB     r4,r4
        0x00001fb8:    2c08        .,      CMP      r4,#8
        0x00001fba:    dbf1        ..      BLT      0x1fa0 ; printC + 24
        0x00001fbc:    2400        .$      MOVS     r4,#0
        0x00001fbe:    1c7f        ..      ADDS     r7,r7,#1
        0x00001fc0:    1b30        0.      SUBS     r0,r6,r4
        0x00001fc2:    b2c1        ..      UXTB     r1,r0
        0x00001fc4:    b2f8        ..      UXTB     r0,r7
        0x00001fc6:    f7fffcf9    ....    BL       lcdSetAddr ; 0x19bc
        0x00001fca:    4805        .H      LDR      r0,[pc,#20] ; [0x1fe0] = 0x2000020c
        0x00001fcc:    1929        ).      ADDS     r1,r5,r4
        0x00001fce:    1808        ..      ADDS     r0,r1,r0
        0x00001fd0:    7a00        .z      LDRB     r0,[r0,#8]
        0x00001fd2:    f7fffd3f    ..?.    BL       lcdWriteData ; 0x1a54
        0x00001fd6:    1c64        d.      ADDS     r4,r4,#1
        0x00001fd8:    b264        d.      SXTB     r4,r4
        0x00001fda:    2c08        .,      CMP      r4,#8
        0x00001fdc:    dbf0        ..      BLT      0x1fc0 ; printC + 56
        0x00001fde:    bdf0        ..      POP      {r4-r7,pc}
    $d
        0x00001fe0:    2000020c    ...     DCD    536871436
    $t
    i.printInverseC
    printInverseC
        0x00001fe4:    b5f0        ..      PUSH     {r4-r7,lr}
        0x00001fe6:    2381        .#      MOVS     r3,#0x81
        0x00001fe8:    1a1e        ..      SUBS     r6,r3,r0
        0x00001fea:    17c8        ..      ASRS     r0,r1,#31
        0x00001fec:    0f40        @.      LSRS     r0,r0,#29
        0x00001fee:    0115        ..      LSLS     r5,r2,#4
        0x00001ff0:    1840        @.      ADDS     r0,r0,r1
        0x00001ff2:    3dff        .=      SUBS     r5,r5,#0xff
        0x00001ff4:    2400        .$      MOVS     r4,#0
        0x00001ff6:    10c7        ..      ASRS     r7,r0,#3
        0x00001ff8:    3dff        .=      SUBS     r5,r5,#0xff
        0x00001ffa:    3d02        .=      SUBS     r5,#2
        0x00001ffc:    1b30        0.      SUBS     r0,r6,r4
        0x00001ffe:    b2c1        ..      UXTB     r1,r0
        0x00002000:    b2f8        ..      UXTB     r0,r7
        0x00002002:    f7fffcdb    ....    BL       lcdSetAddr ; 0x19bc
        0x00002006:    480f        .H      LDR      r0,[pc,#60] ; [0x2044] = 0x2000020c
        0x00002008:    1929        ).      ADDS     r1,r5,r4
        0x0000200a:    5c40        @\      LDRB     r0,[r0,r1]
        0x0000200c:    43c0        .C      MVNS     r0,r0
        0x0000200e:    b2c0        ..      UXTB     r0,r0
        0x00002010:    f7fffd20    .. .    BL       lcdWriteData ; 0x1a54
        0x00002014:    1c64        d.      ADDS     r4,r4,#1
        0x00002016:    b264        d.      SXTB     r4,r4
        0x00002018:    2c08        .,      CMP      r4,#8
        0x0000201a:    dbef        ..      BLT      0x1ffc ; printInverseC + 24
        0x0000201c:    2400        .$      MOVS     r4,#0
        0x0000201e:    1c7f        ..      ADDS     r7,r7,#1
        0x00002020:    1b30        0.      SUBS     r0,r6,r4
        0x00002022:    b2c1        ..      UXTB     r1,r0
        0x00002024:    b2f8        ..      UXTB     r0,r7
        0x00002026:    f7fffcc9    ....    BL       lcdSetAddr ; 0x19bc
        0x0000202a:    4806        .H      LDR      r0,[pc,#24] ; [0x2044] = 0x2000020c
        0x0000202c:    1929        ).      ADDS     r1,r5,r4
        0x0000202e:    1808        ..      ADDS     r0,r1,r0
        0x00002030:    7a00        .z      LDRB     r0,[r0,#8]
        0x00002032:    43c0        .C      MVNS     r0,r0
        0x00002034:    b2c0        ..      UXTB     r0,r0
        0x00002036:    f7fffd0d    ....    BL       lcdWriteData ; 0x1a54
        0x0000203a:    1c64        d.      ADDS     r4,r4,#1
        0x0000203c:    b264        d.      SXTB     r4,r4
        0x0000203e:    2c08        .,      CMP      r4,#8
        0x00002040:    dbee        ..      BLT      0x2020 ; printInverseC + 60
        0x00002042:    bdf0        ..      POP      {r4-r7,pc}
    $d
        0x00002044:    2000020c    ...     DCD    536871436
    $t
    i.print_Line
    print_Line
        0x00002048:    b570        p.      PUSH     {r4-r6,lr}
        0x0000204a:    2400        .$      MOVS     r4,#0
        0x0000204c:    460d        .F      MOV      r5,r1
        0x0000204e:    0106        ..      LSLS     r6,r0,#4
        0x00002050:    e006        ..      B        0x2060 ; print_Line + 24
        0x00002052:    5d2a        *]      LDRB     r2,[r5,r4]
        0x00002054:    4631        1F      MOV      r1,r6
        0x00002056:    00e0        ..      LSLS     r0,r4,#3
        0x00002058:    f7ffff96    ....    BL       printC ; 0x1f88
        0x0000205c:    1c64        d.      ADDS     r4,r4,#1
        0x0000205e:    b264        d.      SXTB     r4,r4
        0x00002060:    4628        (F      MOV      r0,r5
        0x00002062:    f7fef885    ....    BL       strlen ; 0x170
        0x00002066:    42a0        .B      CMP      r0,r4
        0x00002068:    d8f3        ..      BHI      0x2052 ; print_Line + 10
        0x0000206a:    bd70        p.      POP      {r4-r6,pc}
    $d.realdata
    .constdata
        0x0000206c:    00000000    ....    DCD    0
        0x00002070:    00000020     ...    DCD    32
        0x00002074:    00000000    ....    DCD    0
        0x00002078:    00000004    ....    DCD    4
        0x0000207c:    0000000c    ....    DCD    12
        0x00002080:    00000024    $...    DCD    36
        0x00002084:    00000000    ....    DCD    0
        0x00002088:    00000004    ....    DCD    4
        0x0000208c:    0000002c    ,...    DCD    44
        0x00002090:    00000000    ....    DCD    0
        0x00002094:    00000000    ....    DCD    0
        0x00002098:    00000004    ....    DCD    4
        0x0000209c:    0000002c    ,...    DCD    44
        0x000020a0:    00000000    ....    DCD    0
    .constdata
        0x000020a4:    00b71b00    ....    DCD    12000000
        0x000020a8:    00008000    ....    DCD    32768
        0x000020ac:    00000000    ....    DCD    0
        0x000020b0:    01518000    ..Q.    DCD    22118400
        0x000020b4:    00000000    ....    DCD    0
        0x000020b8:    00000000    ....    DCD    0
        0x000020bc:    00000000    ....    DCD    0
        0x000020c0:    00002710    .'..    DCD    10000
        0x000020c4:    00000000    ....    DCD    0
        0x000020c8:    00000004    ....    DCD    4
        0x000020cc:    00000000    ....    DCD    0
        0x000020d0:    00000000    ....    DCD    0
        0x000020d4:    00000001    ....    DCD    1
        0x000020d8:    00000000    ....    DCD    0
        0x000020dc:    00000000    ....    DCD    0
        0x000020e0:    00000000    ....    DCD    0
        0x000020e4:    00000002    ....    DCD    2
        0x000020e8:    00000000    ....    DCD    0
        0x000020ec:    00000000    ....    DCD    0
        0x000020f0:    00000000    ....    DCD    0
        0x000020f4:    00000000    ....    DCD    0
        0x000020f8:    00000000    ....    DCD    0
        0x000020fc:    00000000    ....    DCD    0
        0x00002100:    00000000    ....    DCD    0
        0x00002104:    00000003    ....    DCD    3
        0x00002108:    00b71b00    ....    DCD    12000000
        0x0000210c:    00008000    ....    DCD    32768
        0x00002110:    00000000    ....    DCD    0
        0x00002114:    01518000    ..Q.    DCD    22118400
        0x00002118:    00000000    ....    DCD    0
        0x0000211c:    00000000    ....    DCD    0
        0x00002120:    00000000    ....    DCD    0
        0x00002124:    00002710    .'..    DCD    10000
        0x00002128:    00000000    ....    DCD    0
        0x0000212c:    00000004    ....    DCD    4
        0x00002130:    00000000    ....    DCD    0
        0x00002134:    00000000    ....    DCD    0
        0x00002138:    00000001    ....    DCD    1
        0x0000213c:    00000000    ....    DCD    0
        0x00002140:    00000000    ....    DCD    0
        0x00002144:    00000000    ....    DCD    0
        0x00002148:    00000002    ....    DCD    2
        0x0000214c:    00000000    ....    DCD    0
        0x00002150:    00000000    ....    DCD    0
        0x00002154:    00000000    ....    DCD    0
        0x00002158:    00000000    ....    DCD    0
        0x0000215c:    00000000    ....    DCD    0
        0x00002160:    00000000    ....    DCD    0
        0x00002164:    00000000    ....    DCD    0
        0x00002168:    00000003    ....    DCD    3
    .constdata
        0x0000216c:    00b71b00    ....    DCD    12000000
        0x00002170:    00008000    ....    DCD    32768
        0x00002174:    00000000    ....    DCD    0
        0x00002178:    00000000    ....    DCD    0
        0x0000217c:    00000000    ....    DCD    0
        0x00002180:    00002710    .'..    DCD    10000
        0x00002184:    00000000    ....    DCD    0
        0x00002188:    01518000    ..Q.    DCD    22118400
    Region$$Table$$Base
        0x0000218c:    000021ac    .!..    DCD    8620
        0x00002190:    20000000    ...     DCD    536870912
        0x00002194:    000009ec    ....    DCD    2540
        0x00002198:    000012d2    ....    DCD    4818
        0x0000219c:    00002b98    .+..    DCD    11160
        0x000021a0:    200009ec    ...     DCD    536873452
        0x000021a4:    00000d54    T...    DCD    3412
        0x000021a8:    000012e2    ....    DCD    4834
    Region$$Table$$Limit

** Section #2 'ER_RW' (SHT_PROGBITS) [SHF_ALLOC + SHF_WRITE]
    Size   : 2540 bytes (alignment 4)
    Address: 0x20000000


** Section #3 'ER_ZI' (SHT_NOBITS) [SHF_ALLOC + SHF_WRITE]
    Size   : 3412 bytes (alignment 8)
    Address: 0x200009ec


** Section #4 '.debug_abbrev' (SHT_PROGBITS)
    Size   : 1476 bytes


** Section #5 '.debug_frame' (SHT_PROGBITS)
    Size   : 2400 bytes


** Section #6 '.debug_info' (SHT_PROGBITS)
    Size   : 40172 bytes


** Section #7 '.debug_line' (SHT_PROGBITS)
    Size   : 13360 bytes


** Section #8 '.debug_loc' (SHT_PROGBITS)
    Size   : 4748 bytes


** Section #9 '.debug_macinfo' (SHT_PROGBITS)
    Size   : 255324 bytes


** Section #10 '.debug_pubnames' (SHT_PROGBITS)
    Size   : 2726 bytes


** Section #11 '.symtab' (SHT_SYMTAB)
    Size   : 7792 bytes (alignment 4)
    String table #12 '.strtab'
    Last local symbol no. 284


** Section #12 '.strtab' (SHT_STRTAB)
    Size   : 6132 bytes


** Section #13 '.note' (SHT_NOTE)
    Size   : 28 bytes (alignment 4)


** Section #14 '.comment' (SHT_PROGBITS)
    Size   : 14508 bytes


** Section #15 '.shstrtab' (SHT_STRTAB)
    Size   : 156 bytes


